(dp0
S'WA'
p1
(dp2
I0
F0.581
sI1
F0.327
sI3
F0.408
sI5
F0.4
sI7
F0.44
sI9
F0.52
sI11
F0.515
sI13
F0.323
sI15
F0.471
sI17
F0.373
sI19
F0.377
sI21
F0.407
sI23
F0.313
sI25
F0.32
sI27
F0.503
sI29
F0.54
sI31
F0.68
sI33
F0.742
sI35
F0.571
sI37
F0.436
sI39
F0.449
sI41
F0.359
sI43
F0.287
sI45
F0.489
sI47
F0.43
sI49
F0.508
sI51
F0.361
sI53
F0.541
sI55
F0.717
sI57
F0.542
sI59
F0.457
sI61
F0.579
sI63
F0.486
sI65
F0.326
sI67
F0.59
sI69
F0.431
sI71
F0.451
sI73
F0.587
sI75
F0.538
sI77
F0.433
ssS'DE'
p3
(dp4
I0
F0.587
sI1
F0.491
sI3
F0.668
sI5
F0.423
ssS'DC'
p5
(dp6
I0
F0.5
sI1
F0.957
ssS'WI'
p7
(dp8
I0
F0.477
sI1
F0.41
sI3
F0.556
sI5
F0.385
sI7
F0.554
sI9
F0.429
sI11
F0.401
sI13
F0.369
sI15
F0.372
sI141
F0.409
sI17
F0.41
sI19
F0.349
sI21
F0.508
sI23
F0.487
sI137
F0.334
sI25
F0.742
sI27
F0.348
sI29
F0.468
sI31
F0.55
sI133
F0.33
sI33
F0.447
sI35
F0.533
sI37
F0.28
sI39
F0.352
sI129
F0.386
sI41
F0.375
sI43
F0.461
sI45
F0.535
sI47
F0.306
sI49
F0.593
sI51
F0.395
sI53
F0.454
sI55
F0.416
sI57
F0.392
sI59
F0.493
sI61
F0.355
sI63
F0.547
sI65
F0.48
sI67
F0.351
sI69
F0.404
sI71
F0.381
sI73
F0.412
sI75
F0.332
sI77
F0.398
sI78
F0.764
sI79
F0.674
sI81
F0.398
sI83
F0.312
sI139
F0.448
sI85
F0.409
sI87
F0.418
sI89
F0.368
sI91
F0.396
sI135
F0.343
sI93
F0.424
sI95
F0.364
sI97
F0.518
sI99
F0.389
sI131
F0.274
sI101
F0.466
sI103
F0.488
sI105
F0.569
sI107
F0.344
sI109
F0.397
sI111
F0.522
sI113
F0.384
sI115
F0.324
sI117
F0.4
sI119
F0.29
sI121
F0.445
sI123
F0.491
sI125
F0.369
sI127
F0.383
ssS'WV'
p9
(dp10
I0
F0.435
sI1
F0.344
sI3
F0.346
sI5
F0.449
sI7
F0.447
sI9
F0.4
sI11
F0.481
sI13
F0.341
sI15
F0.396
sI17
F0.236
sI19
F0.483
sI21
F0.365
sI23
F0.194
sI25
F0.471
sI27
F0.257
sI29
F0.365
sI31
F0.319
sI33
F0.418
sI35
F0.386
sI37
F0.435
sI39
F0.519
sI41
F0.347
sI43
F0.416
sI45
F0.381
sI47
F0.407
sI49
F0.447
sI51
F0.38
sI53
F0.395
sI55
F0.318
sI57
F0.255
sI59
F0.36
sI61
F0.484
sI63
F0.358
sI65
F0.25
sI67
F0.418
sI69
F0.42
sI71
F0.343
sI73
F0.391
sI75
F0.438
sI77
F0.285
sI79
F0.411
sI81
F0.412
sI83
F0.393
sI85
F0.23
sI87
F0.406
sI89
F0.428
sI91
F0.365
sI93
F0.349
sI95
F0.283
sI97
F0.319
sI99
F0.412
sI101
F0.362
sI103
F0.395
sI105
F0.339
sI107
F0.383
sI109
F0.391
ssS'HI'
p11
(dp12
I0
F0.744
sI1
F0.744
sI3
F0.709
sI9
F0.747
sI7
F0.742
ssS'FL'
p13
(dp14
I0
F0.458
sI1
F0.59
sI3
F0.174
sI5
F0.25
sI7
F0.242
sI9
F0.39
sI11
F0.666
sI13
F0.218
sI15
F0.346
sI17
F0.312
sI19
F0.25
sI21
F0.333
sI23
F0.271
sI27
F0.344
sI29
F0.208
sI31
F0.454
sI133
F0.21
sI33
F0.373
sI35
F0.393
sI37
F0.309
sI39
F0.685
sI129
F0.312
sI41
F0.194
sI43
F0.294
sI45
F0.248
sI47
F0.382
sI49
F0.287
sI51
F0.398
sI53
F0.364
sI55
F0.338
sI57
F0.517
sI59
F0.112
sI61
F0.372
sI63
F0.312
sI65
F0.482
sI67
F0.181
sI69
F0.375
sI71
F0.367
sI73
F0.611
sI75
F0.28
sI77
F0.225
sI79
F0.429
sI81
F0.402
sI83
F0.364
sI85
F0.383
sI86
F0.605
sI87
F0.464
sI89
F0.228
sI91
F0.233
sI93
F0.314
sI95
F0.597
sI97
F0.6
sI99
F0.564
sI131
F0.204
sI101
F0.392
sI103
F0.49
sI105
F0.421
sI107
F0.313
sI109
F0.299
sI111
F0.5
sI113
F0.208
sI115
F0.433
sI117
F0.468
sI119
F0.295
sI121
F0.234
sI123
F0.268
sI125
F0.19
sI127
F0.43
ssS'WY'
p15
(dp16
I0
F0.326
sI1
F0.475
sI3
F0.127
sI5
F0.077
sI7
F0.225
sI9
F0.108
sI11
F0.075
sI13
F0.273
sI15
F0.173
sI17
F0.171
sI19
F0.155
sI21
F0.318
sI23
F0.14
sI25
F0.218
sI27
F0.093
sI29
F0.186
sI31
F0.173
sI33
F0.222
sI35
F0.159
sI37
F0.21
sI39
F0.651
sI41
F0.163
sI43
F0.155
sI45
F0.092
ssS'NH'
p17
(dp18
I0
F0.501
sI1
F0.427
sI3
F0.466
sI5
F0.567
sI7
F0.477
sI9
F0.587
sI11
F0.487
sI13
F0.519
sI15
F0.46
sI17
F0.544
sI19
F0.492
ssS'NJ'
p19
(dp20
I0
F0.536
sI1
F0.532
sI3
F0.562
sI5
F0.576
sI7
F0.663
sI9
F0.397
sI11
F0.528
sI13
F0.788
sI15
F0.498
sI17
F0.767
sI19
F0.427
sI21
F0.687
sI23
F0.602
sI25
F0.445
sI27
F0.477
sI29
F0.325
sI31
F0.612
sI33
F0.42
sI35
F0.565
sI37
F0.34
sI39
F0.68
sI41
F0.366
ssS'NM'
p21
(dp22
I0
F0.56
sI1
F0.602
sI3
F0.227
sI5
F0.301
sI6
F0.539
sI7
F0.452
sI9
F0.269
sI11
F0.237
sI13
F0.599
sI15
F0.276
sI17
F0.542
sI19
F0.619
sI21
F0.334
sI23
F0.463
sI25
F0.24
sI27
F0.283
sI28
F0.62
sI29
F0.479
sI31
F0.729
sI33
F0.698
sI35
F0.339
sI37
F0.315
sI39
F0.727
sI41
F0.272
sI43
F0.516
sI45
F0.315
sI47
F0.759
sI49
F0.779
sI51
F0.348
sI53
F0.558
sI55
F0.796
sI57
F0.324
sI59
F0.208
sI61
F0.451
ssS'TX'
p23
(dp24
I0
F0.403
sI1
F0.203
sI3
F0.176
sI5
F0.258
sI7
F0.241
sI9
F0.094
sI11
F0.07
sI13
F0.35
sI15
F0.194
sI17
F0.228
sI19
F0.175
sI21
F0.393
sI23
F0.131
sI25
F0.421
sI27
F0.421
sI29
F0.571
sI31
F0.228
sI33
F0.086
sI35
F0.168
sI37
F0.262
sI39
F0.372
sI41
F0.373
sI43
F0.474
sI45
F0.127
sI47
F0.76
sI49
F0.119
sI51
F0.219
sI53
F0.206
sI55
F0.417
sI57
F0.313
sI59
F0.105
sI61
F0.668
sI63
F0.282
sI65
F0.087
sI67
F0.197
sI69
F0.271
sI71
F0.181
sI73
F0.212
sI75
F0.123
sI77
F0.109
sI79
F0.219
sI81
F0.1
sI83
F0.109
sI85
F0.411
sI87
F0.129
sI89
F0.238
sI91
F0.239
sI93
F0.155
sI95
F0.143
sI97
F0.151
sI99
F0.293
sI101
F0.147
sI103
F0.222
sI105
F0.275
sI107
F0.284
sI109
F0.619
sI111
F0.15
sI113
F0.637
sI115
F0.241
sI117
F0.289
sI119
F0.179
sI121
F0.394
sI123
F0.174
sI125
F0.145
sI127
F0.69
sI129
F0.134
sI131
F0.679
sI133
F0.114
sI135
F0.29
sI137
F0.29
sI139
F0.266
sI141
F0.727
sI143
F0.162
sI145
F0.329
sI147
F0.182
sI149
F0.197
sI151
F0.242
sI153
F0.228
sI155
F0.228
sI157
F0.534
sI159
F0.157
sI161
F0.196
sI163
F0.532
sI165
F0.133
sI167
F0.382
sI169
F0.155
sI171
F0.18
sI173
F0.058
sI175
F0.271
sI177
F0.255
sI179
F0.097
sI181
F0.226
sI183
F0.288
sI185
F0.237
sI187
F0.334
sI189
F0.248
sI191
F0.155
sI193
F0.136
sI195
F0.09
sI197
F0.171
sI199
F0.124
sI201
F0.565
sI203
F0.276
sI205
F0.091
sI207
F0.183
sI209
F0.495
sI211
F0.11
sI213
F0.193
sI215
F0.71
sI217
F0.201
sI219
F0.178
sI221
F0.158
sI223
F0.19
sI225
F0.242
sI227
F0.21
sI229
F0.392
sI231
F0.209
sI233
F0.108
sI235
F0.12
sI237
F0.096
sI239
F0.175
sI241
F0.196
sI243
F0.378
sI245
F0.498
sI247
F0.792
sI249
F0.553
sI251
F0.198
sI253
F0.163
sI255
F0.279
sI257
F0.258
sI259
F0.188
sI261
F0.541
sI263
F0.141
sI265
F0.209
sI267
F0.108
sI269
F0.032
sI271
F0.328
sI273
F0.519
sI275
F0.186
sI277
F0.197
sI279
F0.202
sI281
F0.188
sI283
F0.564
sI285
F0.138
sI287
F0.215
sI289
F0.125
sI291
F0.205
sI293
F0.233
sI295
F0.104
sI297
F0.176
sI299
F0.181
sI301
F0.066
sI303
F0.299
sI305
F0.207
sI307
F0.159
sI309
F0.359
sI311
F0.081
sI313
F0.208
sI315
F0.28
sI317
F0.155
sI319
F0.176
sI321
F0.292
sI323
F0.787
sI325
F0.277
sI327
F0.183
sI329
F0.213
sI331
F0.244
sI333
F0.11
sI335
F0.165
sI337
F0.105
sI339
F0.233
sI341
F0.216
sI343
F0.293
sI345
F0.065
sI347
F0.316
sI349
F0.25
sI351
F0.248
sI353
F0.225
sI355
F0.492
sI357
F0.094
sI359
F0.084
sI361
F0.184
sI363
F0.171
sI365
F0.179
sI367
F0.152
sI369
F0.307
sI371
F0.386
sI373
F0.211
sI375
F0.281
sI377
F0.691
sI379
F0.136
sI381
F0.161
sI383
F0.191
sI385
F0.159
sI387
F0.226
sI389
F0.539
sI391
F0.361
sI393
F0.037
sI395
F0.321
sI397
F0.253
sI399
F0.122
sI401
F0.211
sI403
F0.133
sI405
F0.257
sI407
F0.202
sI409
F0.376
sI411
F0.126
sI413
F0.203
sI415
F0.143
sI417
F0.07
sI419
F0.197
sI421
F0.106
sI423
F0.274
sI425
F0.144
sI427
F0.807
sI429
F0.103
sI431
F0.113
sI433
F0.196
sI435
F0.226
sI437
F0.217
sI439
F0.454
sI441
F0.232
sI443
F0.328
sI445
F0.247
sI447
F0.105
sI449
F0.284
sI451
F0.25
sI453
F0.707
sI455
F0.196
sI457
F0.158
sI459
F0.153
sI461
F0.228
sI463
F0.444
sI465
F0.542
sI467
F0.132
sI469
F0.294
sI471
F0.321
sI473
F0.353
sI475
F0.235
sI477
F0.236
sI479
F0.764
sI481
F0.295
sI483
F0.085
sI485
F0.241
sI487
F0.203
sI489
F0.689
sI491
F0.447
sI493
F0.255
sI495
F0.23
sI497
F0.142
sI499
F0.143
sI501
F0.192
sI503
F0.117
sI505
F0.667
sI507
F0.792
ssS'LA'
p25
(dp26
I0
F0.355
sI1
F0.188
sI3
F0.242
sI5
F0.354
sI7
F0.416
sI9
F0.36
sI11
F0.168
sI13
F0.582
sI15
F0.365
sI17
F0.626
sI19
F0.289
sI21
F0.236
sI23
F0.078
sI25
F0.349
sI27
F0.544
sI29
F0.441
sI31
F0.513
sI33
F0.587
sI35
F0.665
sI37
F0.494
sI39
F0.274
sI41
F0.346
sI43
F0.182
sI45
F0.319
sI47
F0.577
sI49
F0.38
sI51
F0.451
sI53
F0.206
sI55
F0.287
sI57
F0.238
sI59
F0.13
sI61
F0.474
sI63
F0.16
sI65
F0.64
sI67
F0.523
sI69
F0.558
sI71
F0.844
sI73
F0.453
sI75
F0.345
sI77
F0.459
sI79
F0.38
sI81
F0.585
sI83
F0.411
sI85
F0.264
sI87
F0.37
sI89
F0.365
sI91
F0.615
sI93
F0.591
sI95
F0.657
sI97
F0.41
sI99
F0.3
sI101
F0.356
sI103
F0.258
sI105
F0.376
sI107
F0.599
sI109
F0.274
sI111
F0.341
sI113
F0.17
sI115
F0.208
sI117
F0.367
sI119
F0.488
sI121
F0.487
sI123
F0.216
sI125
F0.437
sI127
F0.331
ssS'NC'
p27
(dp28
I0
F0.479
sI1
F0.439
sI3
F0.233
sI5
F0.278
sI7
F0.565
sI9
F0.292
sI11
F0.226
sI13
F0.374
sI15
F0.615
sI17
F0.459
sI19
F0.361
sI21
F0.588
sI23
F0.321
sI25
F0.402
sI27
F0.259
sI29
F0.274
sI31
F0.278
sI33
F0.448
sI35
F0.316
sI37
F0.55
sI39
F0.241
sI41
F0.422
sI43
F0.264
sI45
F0.355
sI47
F0.395
sI49
F0.385
sI51
F0.576
sI53
F0.252
sI55
F0.401
sI57
F0.264
sI59
F0.268
sI61
F0.4
sI63
F0.795
sI65
F0.659
sI67
F0.55
sI69
F0.449
sI71
F0.344
sI73
F0.451
sI75
F0.236
sI77
F0.492
sI79
F0.45
sI81
F0.602
sI83
F0.638
sI85
F0.383
sI87
F0.391
sI89
F0.372
sI91
F0.683
sI93
F0.555
sI95
F0.435
sI97
F0.328
sI99
F0.468
sI101
F0.352
sI103
F0.407
sI105
F0.444
sI107
F0.464
sI109
F0.269
sI111
F0.274
sI113
F0.326
sI115
F0.405
sI117
F0.493
sI119
F0.64
sI121
F0.228
sI123
F0.386
sI125
F0.355
sI127
F0.506
sI129
F0.489
sI131
F0.631
sI133
F0.323
sI135
F0.75
sI137
F0.364
sI139
F0.515
sI141
F0.355
sI143
F0.357
sI145
F0.421
sI147
F0.529
sI149
F0.383
sI151
F0.229
sI153
F0.462
sI155
F0.475
sI157
F0.366
sI159
F0.325
sI161
F0.29
sI163
F0.413
sI165
F0.542
sI167
F0.26
sI169
F0.24
sI171
F0.264
sI173
F0.418
sI175
F0.409
sI177
F0.419
sI179
F0.337
sI181
F0.623
sI183
F0.597
sI185
F0.668
sI187
F0.569
sI189
F0.515
sI191
F0.438
sI193
F0.239
sI195
F0.532
sI197
F0.202
sI199
F0.37
ssS'ND'
p29
(dp30
I0
F0.211
sI1
F0.134
sI3
F0.223
sI5
F0.399
sI7
F0.086
sI9
F0.172
sI11
F0.105
sI13
F0.1
sI15
F0.19
sI17
F0.307
sI19
F0.197
sI21
F0.187
sI23
F0.178
sI25
F0.141
sI27
F0.301
sI29
F0.094
sI31
F0.163
sI33
F0.105
sI35
F0.31
sI37
F0.113
sI39
F0.212
sI41
F0.109
sI43
F0.12
sI45
F0.187
sI47
F0.091
sI49
F0.151
sI51
F0.124
sI53
F0.133
sI55
F0.179
sI57
F0.123
sI59
F0.171
sI61
F0.281
sI63
F0.277
sI65
F0.102
sI67
F0.182
sI69
F0.177
sI71
F0.232
sI73
F0.281
sI75
F0.128
sI77
F0.213
sI79
F0.593
sI81
F0.284
sI83
F0.106
sI85
F0.651
sI87
F0.088
sI89
F0.119
sI91
F0.276
sI93
F0.189
sI95
F0.237
sI97
F0.251
sI99
F0.206
sI101
F0.177
sI103
F0.148
sI105
F0.122
ssS'NE'
p31
(dp32
I0
F0.396
sI1
F0.262
sI3
F0.123
sI5
F0.063
sI7
F0.048
sI9
F0.099
sI11
F0.153
sI13
F0.212
sI15
F0.116
sI17
F0.1
sI19
F0.245
sI21
F0.282
sI23
F0.184
sI25
F0.292
sI27
F0.139
sI29
F0.095
sI31
F0.108
sI33
F0.163
sI35
F0.165
sI37
F0.283
sI39
F0.187
sI41
F0.121
sI43
F0.419
sI45
F0.235
sI47
F0.263
sI49
F0.129
sI51
F0.214
sI53
F0.314
sI55
F0.507
sI57
F0.098
sI59
F0.225
sI61
F0.157
sI63
F0.127
sI65
F0.137
sI67
F0.316
sI69
F0.15
sI71
F0.129
sI73
F0.172
sI75
F0.052
sI77
F0.187
sI79
F0.303
sI81
F0.188
sI83
F0.144
sI85
F0.06
sI87
F0.115
sI89
F0.109
sI91
F0.101
sI93
F0.192
sI95
F0.258
sI97
F0.294
sI99
F0.179
sI101
F0.149
sI103
F0.078
sI105
F0.147
sI107
F0.184
sI109
F0.5
sI111
F0.194
sI113
F0.074
sI115
F0.129
sI117
F0.052
sI119
F0.202
sI121
F0.171
sI123
F0.136
sI125
F0.182
sI127
F0.27
sI129
F0.169
sI131
F0.294
sI133
F0.223
sI135
F0.117
sI137
F0.13
sI139
F0.111
sI141
F0.194
sI143
F0.169
sI145
F0.132
sI147
F0.229
sI149
F0.092
sI151
F0.364
sI153
F0.383
sI155
F0.251
sI157
F0.24
sI159
F0.257
sI161
F0.115
sI163
F0.228
sI165
F0.113
sI167
F0.161
sI169
F0.197
sI171
F0.08
sI173
F0.473
sI175
F0.16
sI177
F0.261
sI179
F0.236
sI181
F0.188
sI183
F0.141
sI185
F0.201
ssS'TN'
p33
(dp34
I0
F0.353
sI1
F0.319
sI3
F0.228
sI5
F0.238
sI7
F0.198
sI9
F0.244
sI11
F0.192
sI13
F0.186
sI15
F0.219
sI17
F0.231
sI19
F0.17
sI21
F0.256
sI23
F0.191
sI25
F0.176
sI27
F0.248
sI29
F0.168
sI31
F0.248
sI33
F0.247
sI35
F0.203
sI37
F0.638
sI39
F0.2
sI41
F0.233
sI43
F0.263
sI45
F0.217
sI47
F0.31
sI49
F0.154
sI51
F0.275
sI53
F0.276
sI55
F0.268
sI57
F0.148
sI59
F0.185
sI61
F0.216
sI63
F0.205
sI65
F0.413
sI67
F0.149
sI69
F0.5
sI71
F0.168
sI73
F0.174
sI75
F0.552
sI77
F0.181
sI79
F0.244
sI81
F0.243
sI83
F0.284
sI85
F0.285
sI87
F0.259
sI89
F0.191
sI91
F0.155
sI93
F0.373
sI95
F0.298
sI97
F0.428
sI99
F0.185
sI101
F0.199
sI103
F0.197
sI105
F0.218
sI107
F0.193
sI109
F0.191
sI111
F0.146
sI113
F0.42
sI115
F0.269
sI117
F0.259
sI119
F0.297
sI121
F0.204
sI123
F0.192
sI125
F0.402
sI127
F0.176
sI129
F0.162
sI131
F0.203
sI133
F0.243
sI135
F0.216
sI137
F0.21
sI139
F0.197
sI141
F0.265
sI143
F0.183
sI145
F0.234
sI147
F0.255
sI149
F0.362
sI151
F0.134
sI153
F0.192
sI155
F0.18
sI157
F0.643
sI159
F0.235
sI161
F0.24
sI163
F0.207
sI165
F0.266
sI167
F0.255
sI169
F0.31
sI171
F0.182
sI173
F0.167
sI175
F0.228
sI177
F0.27
sI179
F0.276
sI181
F0.125
sI183
F0.235
sI185
F0.194
sI187
F0.313
sI189
F0.268
ssS'NY'
p35
(dp36
I0
F0.673
sI1
F0.685
sI3
F0.363
sI5
F0.916
sI7
F0.563
sI9
F0.423
sI11
F0.531
sI13
F0.476
sI15
F0.472
sI17
F0.444
sI19
F0.571
sI21
F0.574
sI23
F0.548
sI25
F0.431
sI27
F0.544
sI29
F0.614
sI31
F0.524
sI33
F0.535
sI35
F0.415
sI37
F0.399
sI39
F0.439
sI41
F0.385
sI43
F0.44
sI45
F0.48
sI47
F0.851
sI49
F0.404
sI51
F0.456
sI53
F0.504
sI55
F0.63
sI57
F0.471
sI59
F0.591
sI61
F0.892
sI63
F0.503
sI65
F0.497
sI67
F0.642
sI69
F0.519
sI71
F0.538
sI73
F0.372
sI75
F0.48
sI77
F0.509
sI79
F0.473
sI81
F0.808
sI83
F0.567
sI85
F0.52
sI87
F0.592
sI89
F0.532
sI91
F0.541
sI93
F0.6
sI95
F0.409
sI97
F0.406
sI99
F0.513
sI101
F0.391
sI103
F0.533
sI105
F0.518
sI107
F0.429
sI109
F0.748
sI111
F0.605
sI113
F0.529
sI115
F0.483
sI117
F0.445
sI119
F0.696
sI121
F0.348
sI123
F0.464
ssS'PA'
p37
(dp38
I0
F0.489
sI1
F0.317
sI3
F0.581
sI5
F0.258
sI7
F0.414
sI9
F0.176
sI11
F0.446
sI13
F0.275
sI15
F0.277
sI17
F0.487
sI19
F0.309
sI21
F0.337
sI23
F0.263
sI25
F0.351
sI27
F0.501
sI29
F0.517
sI31
F0.278
sI133
F0.351
sI33
F0.27
sI35
F0.351
sI37
F0.35
sI39
F0.304
sI129
F0.354
sI41
F0.394
sI43
F0.505
sI45
F0.588
sI47
F0.305
sI49
F0.486
sI51
F0.374
sI53
F0.296
sI55
F0.263
sI57
F0.148
sI59
F0.335
sI61
F0.259
sI63
F0.338
sI65
F0.211
sI67
F0.2
sI69
F0.543
sI71
F0.391
sI73
F0.378
sI75
F0.32
sI77
F0.514
sI79
F0.428
sI81
F0.284
sI83
F0.255
sI85
F0.378
sI87
F0.219
sI89
F0.514
sI91
F0.582
sI93
F0.357
sI95
F0.476
sI97
F0.301
sI99
F0.239
sI131
F0.322
sI101
F0.834
sI103
F0.373
sI105
F0.18
sI107
F0.307
sI109
F0.269
sI111
F0.229
sI113
F0.272
sI115
F0.295
sI117
F0.224
sI119
F0.366
sI121
F0.3
sI123
F0.29
sI125
F0.384
sI127
F0.315
ssS'CA'
p39
(dp40
I0
F0.812
sI1
F0.916
sI3
F0.786
sI5
F0.649
sI7
F0.714
sI9
F0.661
sI11
F0.672
sI13
F0.857
sI15
F0.679
sI17
F0.69
sI19
F0.739
sI21
F0.636
sI23
F0.816
sI25
F0.855
sI27
F0.688
sI29
F0.677
sI31
F0.683
sI33
F0.749
sI35
F0.565
sI37
F0.874
sI39
F0.679
sI41
F0.914
sI43
F0.652
sI45
F0.825
sI47
F0.758
sI49
F0.564
sI51
F0.764
sI53
F0.851
sI55
F0.839
sI57
F0.744
sI59
F0.754
sI61
F0.698
sI63
F0.658
sI65
F0.738
sI67
F0.8
sI69
F0.795
sI71
F0.757
sI73
F0.782
sI75
F0.947
sI77
F0.769
sI79
F0.755
sI81
F0.898
sI83
F0.818
sI85
F0.883
sI87
F0.902
sI89
F0.605
sI91
F0.638
sI93
F0.658
sI95
F0.823
sI97
F0.875
sI99
F0.73
sI101
F0.682
sI103
F0.612
sI105
F0.701
sI107
F0.683
sI109
F0.665
sI111
F0.782
sI113
F0.859
sI115
F0.653
ssS'NV'
p41
(dp42
I0
F0.484
sI1
F0.223
sI3
F0.558
sI5
F0.325
sI7
F0.196
sI9
F0.17
sI11
F0.103
sI13
F0.238
sI15
F0.188
sI17
F0.155
sI19
F0.285
sI21
F0.353
sI23
F0.293
sI33
F0.212
sI27
F0.25
sI29
F0.328
sI510
F0.425
sI31
F0.501
ssS'VA'
p43
(dp44
I0
F0.465
sI1
F0.44
sI3
F0.634
sI5
F0.308
sI7
F0.314
sI520
F0.273
sI9
F0.341
sI11
F0.261
sI13
F0.82
sI15
F0.237
sI17
F0.28
sI530
F0.326
sI19
F0.241
sI21
F0.15
sI23
F0.251
sI25
F0.595
sI27
F0.191
sI540
F0.858
sI29
F0.441
sI31
F0.253
sI33
F0.474
sI35
F0.194
sI36
F0.619
sI37
F0.382
sI550
F0.493
sI41
F0.488
sI43
F0.396
sI45
F0.202
sI47
F0.367
sI49
F0.43
sI51
F0.213
sI53
F0.436
sI57
F0.489
sI570
F0.294
sI59
F0.692
sI61
F0.37
sI63
F0.303
sI65
F0.45
sI67
F0.281
sI580
F0.404
sI69
F0.314
sI71
F0.247
sI73
F0.292
sI75
F0.368
sI77
F0.201
sI590
F0.602
sI79
F0.33
sI81
F0.596
sI83
F0.415
sI85
F0.328
sI87
F0.611
sI600
F0.666
sI89
F0.35
sI91
F0.279
sI93
F0.391
sI95
F0.473
sI97
F0.413
sI610
F0.815
sI99
F0.353
sI101
F0.316
sI103
F0.448
sI105
F0.177
sI107
F0.589
sI620
F0.639
sI109
F0.371
sI111
F0.41
sI113
F0.333
sI115
F0.308
sI117
F0.442
sI630
F0.642
sI119
F0.365
sI121
F0.507
sI125
F0.47
sI127
F0.304
sI640
F0.298
sI131
F0.548
sI133
F0.357
sI135
F0.433
sI137
F0.362
sI650
F0.697
sI139
F0.243
sI141
F0.215
sI143
F0.297
sI145
F0.255
sI147
F0.528
sI660
F0.618
sI149
F0.412
sI153
F0.606
sI155
F0.288
sI157
F0.407
sI670
F0.549
sI159
F0.378
sI161
F0.352
sI163
F0.345
sI165
F0.27
sI678
F0.664
sI167
F0.197
sI680
F0.451
sI169
F0.161
sI171
F0.272
sI173
F0.214
sI175
F0.417
sI177
F0.411
sI690
F0.622
sI179
F0.452
sI181
F0.537
sI183
F0.583
sI185
F0.16
sI683
F0.586
sI187
F0.305
sI700
F0.634
sI191
F0.223
sI193
F0.462
sI195
F0.183
sI197
F0.216
sI710
F0.721
sI199
F0.408
sI720
F0.273
sI730
F0.892
sI735
F0.239
sI740
F0.69
sI750
F0.526
sI760
F0.84
sI770
F0.593
sI775
F0.368
sI790
F0.51
sI800
F0.572
sI810
F0.476
sI820
F0.439
sI830
F0.73
sI840
F0.519
sI685
F0.65
sI595
F0.659
sI510
F0.812
ssS'CO'
p45
(dp46
I0
F0.499
sI1
F0.542
sI3
F0.537
sI5
F0.57
sI7
F0.387
sI9
F0.209
sI11
F0.387
sI13
F0.752
sI14
F0.57
sI15
F0.484
sI17
F0.167
sI19
F0.525
sI21
F0.504
sI23
F0.67
sI25
F0.296
sI27
F0.301
sI29
F0.284
sI31
F0.791
sI33
F0.243
sI35
F0.397
sI37
F0.607
sI39
F0.225
sI41
F0.378
sI43
F0.29
sI45
F0.478
sI47
F0.523
sI49
F0.438
sI51
F0.621
sI53
F0.403
sI55
F0.5
sI57
F0.251
sI59
F0.539
sI61
F0.176
sI63
F0.205
sI65
F0.574
sI67
F0.553
sI69
F0.529
sI71
F0.464
sI73
F0.213
sI75
F0.25
sI77
F0.32
sI79
F0.445
sI81
F0.18
sI83
F0.35
sI85
F0.293
sI87
F0.311
sI89
F0.4
sI91
F0.557
sI93
F0.371
sI95
F0.252
sI97
F0.731
sI99
F0.299
sI101
F0.525
sI103
F0.163
sI105
F0.419
sI107
F0.595
sI109
F0.573
sI111
F0.571
sI113
F0.739
sI115
F0.27
sI117
F0.65
sI119
F0.285
sI121
F0.156
sI123
F0.393
sI125
F0.213
ssS'AK'
p47
(dp48
I0
F0.334
ssS'AL'
p49
(dp50
I0
F0.35
sI1
F0.252
sI3
F0.204
sI5
F0.47
sI7
F0.229
sI9
F0.102
sI11
F0.749
sI13
F0.431
sI15
F0.294
sI17
F0.426
sI19
F0.165
sI21
F0.174
sI23
F0.429
sI25
F0.441
sI27
F0.201
sI29
F0.12
sI31
F0.216
sI133
F0.106
sI33
F0.326
sI35
F0.475
sI37
F0.346
sI39
F0.165
sI129
F0.289
sI41
F0.276
sI43
F0.121
sI45
F0.248
sI47
F0.68
sI49
F0.167
sI51
F0.238
sI53
F0.315
sI55
F0.26
sI57
F0.177
sI59
F0.218
sI61
F0.145
sI63
F0.817
sI65
F0.596
sI67
F0.295
sI69
F0.262
sI71
F0.202
sI73
F0.529
sI75
F0.159
sI77
F0.282
sI79
F0.271
sI81
F0.374
sI83
F0.252
sI85
F0.725
sI87
F0.832
sI89
F0.401
sI91
F0.512
sI93
F0.133
sI95
F0.158
sI97
F0.425
sI99
F0.424
sI131
F0.697
sI101
F0.623
sI103
F0.239
sI105
F0.721
sI107
F0.421
sI109
F0.394
sI111
F0.237
sI113
F0.506
sI115
F0.162
sI117
F0.242
sI119
F0.743
sI121
F0.376
sI123
F0.296
sI125
F0.394
sI127
F0.174
ssS'AR'
p51
(dp52
I149
F0.275
sI1
F0.363
sI3
F0.313
sI5
F0.226
sI0
F0.265
sI7
F0.308
sI145
F0.236
sI9
F0.183
sI11
F0.389
sI13
F0.327
sI15
F0.329
sI141
F0.269
sI17
F0.567
sI19
F0.48
sI21
F0.333
sI23
F0.219
sI137
F0.259
sI25
F0.275
sI27
F0.351
sI29
F0.381
sI31
F0.31
sI133
F0.254
sI33
F0.226
sI35
F0.534
sI37
F0.306
sI39
F0.443
sI129
F0.19
sI41
F0.552
sI43
F0.384
sI45
F0.355
sI47
F0.239
sI49
F0.243
sI51
F0.346
sI53
F0.244
sI55
F0.239
sI57
F0.356
sI59
F0.317
sI61
F0.308
sI63
F0.259
sI65
F0.248
sI67
F0.362
sI147
F0.538
sI69
F0.633
sI71
F0.311
sI73
F0.364
sI75
F0.249
sI143
F0.444
sI77
F0.574
sI79
F0.367
sI81
F0.289
sI83
F0.27
sI139
F0.341
sI85
F0.262
sI87
F0.278
sI89
F0.207
sI91
F0.273
sI135
F0.226
sI93
F0.435
sI95
F0.494
sI97
F0.259
sI99
F0.369
sI131
F0.303
sI101
F0.203
sI103
F0.441
sI105
F0.304
sI107
F0.625
sI109
F0.215
sI111
F0.312
sI113
F0.184
sI115
F0.255
sI117
F0.291
sI119
F0.587
sI121
F0.26
sI123
F0.547
sI125
F0.299
sI127
F0.216
ssS'VT'
p53
(dp54
I0
F0.688
sI1
F0.594
sI3
F0.583
sI5
F0.469
sI7
F0.666
sI9
F0.385
sI11
F0.466
sI13
F0.51
sI15
F0.576
sI17
F0.527
sI19
F0.438
sI21
F0.475
sI23
F0.598
sI25
F0.691
sI27
F0.608
ssS'IL'
p55
(dp56
I0
F0.568
sI1
F0.329
sI3
F0.514
sI5
F0.377
sI7
F0.413
sI9
F0.287
sI11
F0.421
sI13
F0.414
sI15
F0.363
sI17
F0.358
sI19
F0.57
sI21
F0.309
sI23
F0.288
sI25
F0.247
sI27
F0.316
sI29
F0.366
sI31
F0.756
sI33
F0.286
sI35
F0.228
sI37
F0.512
sI39
F0.276
sI41
F0.257
sI43
F0.546
sI45
F0.258
sI47
F0.185
sI49
F0.208
sI51
F0.277
sI53
F0.24
sI55
F0.376
sI57
F0.442
sI59
F0.379
sI61
F0.309
sI63
F0.411
sI65
F0.311
sI67
F0.314
sI69
F0.315
sI71
F0.391
sI73
F0.403
sI75
F0.215
sI77
F0.56
sI79
F0.243
sI81
F0.356
sI83
F0.337
sI85
F0.426
sI87
F0.279
sI89
F0.532
sI91
F0.454
sI93
F0.487
sI95
F0.494
sI97
F0.566
sI99
F0.454
sI101
F0.282
sI103
F0.391
sI105
F0.282
sI107
F0.286
sI109
F0.476
sI111
F0.452
sI113
F0.467
sI115
F0.41
sI117
F0.403
sI119
F0.474
sI121
F0.345
sI123
F0.335
sI125
F0.357
sI127
F0.319
sI129
F0.296
sI131
F0.41
sI133
F0.356
sI135
F0.367
sI137
F0.342
sI139
F0.259
sI141
F0.35
sI143
F0.501
sI145
F0.363
sI147
F0.31
sI149
F0.286
sI151
F0.267
sI153
F0.43
sI155
F0.417
sI157
F0.354
sI159
F0.262
sI161
F0.548
sI163
F0.564
sI165
F0.346
sI167
F0.442
sI169
F0.376
sI171
F0.277
sI173
F0.242
sI175
F0.302
sI177
F0.4
sI179
F0.352
sI181
F0.383
sI183
F0.358
sI185
F0.262
sI187
F0.415
sI189
F0.286
sI191
F0.191
sI193
F0.276
sI195
F0.478
sI197
F0.536
sI199
F0.37
sI201
F0.483
sI203
F0.277
ssS'GA'
p57
(dp58
I0
F0.447
sI1
F0.197
sI3
F0.267
sI5
F0.144
sI7
F0.434
sI9
F0.488
sI11
F0.103
sI13
F0.229
sI15
F0.211
sI17
F0.344
sI19
F0.156
sI21
F0.578
sI23
F0.213
sI25
F0.106
sI27
F0.391
sI29
F0.256
sI31
F0.355
sI33
F0.496
sI35
F0.266
sI37
F0.564
sI39
F0.317
sI43
F0.264
sI45
F0.283
sI47
F0.183
sI49
F0.257
sI51
F0.543
sI53
F0.433
sI55
F0.208
sI57
F0.222
sI59
F0.661
sI61
F0.53
sI63
F0.848
sI65
F0.265
sI67
F0.477
sI69
F0.291
sI71
F0.241
sI73
F0.287
sI75
F0.281
sI77
F0.266
sI79
F0.268
sI81
F0.359
sI83
F0.163
sI85
F0.122
sI87
F0.397
sI89
F0.798
sI91
F0.251
sI93
F0.454
sI95
F0.672
sI97
F0.542
sI99
F0.444
sI101
F0.138
sI103
F0.202
sI105
F0.312
sI107
F0.298
sI109
F0.292
sI111
F0.167
sI113
F0.375
sI115
F0.263
sI117
F0.228
sI119
F0.148
sI121
F0.672
sI123
F0.158
sI125
F0.107
sI127
F0.333
sI129
F0.171
sI131
F0.329
sI133
F0.341
sI135
F0.504
sI137
F0.154
sI139
F0.226
sI141
F0.736
sI143
F0.137
sI145
F0.241
sI147
F0.254
sI149
F0.18
sI151
F0.508
sI153
F0.371
sI155
F0.238
sI157
F0.164
sI159
F0.254
sI161
F0.177
sI163
F0.531
sI165
F0.353
sI167
F0.293
sI169
F0.312
sI171
F0.297
sI173
F0.28
sI175
F0.331
sI177
F0.224
sI179
F0.583
sI181
F0.303
sI183
F0.328
sI185
F0.395
sI187
F0.181
sI189
F0.387
sI191
F0.378
sI193
F0.6
sI195
F0.203
sI197
F0.374
sI199
F0.403
sI201
F0.238
sI205
F0.432
sI207
F0.272
sI209
F0.227
sI211
F0.271
sI213
F0.155
sI215
F0.571
sI217
F0.502
sI219
F0.261
sI221
F0.275
sI223
F0.278
sI225
F0.468
sI227
F0.141
sI229
F0.12
sI231
F0.142
sI233
F0.205
sI235
F0.289
sI237
F0.282
sI239
F0.439
sI241
F0.18
sI243
F0.528
sI245
F0.644
sI247
F0.619
sI249
F0.204
sI251
F0.391
sI253
F0.332
sI255
F0.359
sI257
F0.184
sI259
F0.568
sI261
F0.493
sI263
F0.6
sI265
F0.589
sI267
F0.232
sI269
F0.372
sI271
F0.338
sI273
F0.516
sI275
F0.373
sI277
F0.287
sI279
F0.249
sI281
F0.187
sI283
F0.297
sI285
F0.366
sI287
F0.355
sI289
F0.475
sI291
F0.166
sI293
F0.308
sI295
F0.181
sI297
F0.203
sI299
F0.278
sI301
F0.55
sI303
F0.486
sI305
F0.191
sI307
F0.401
sI309
F0.304
sI311
F0.145
sI313
F0.262
sI315
F0.269
sI317
F0.399
sI319
F0.433
sI321
F0.243
ssS'IN'
p59
(dp60
I0
F0.447
sI1
F0.292
sI3
F0.421
sI5
F0.36
sI7
F0.307
sI9
F0.353
sI11
F0.357
sI13
F0.379
sI15
F0.299
sI17
F0.355
sI19
F0.413
sI21
F0.33
sI23
F0.317
sI25
F0.394
sI27
F0.289
sI29
F0.236
sI31
F0.268
sI33
F0.304
sI35
F0.478
sI37
F0.376
sI39
F0.359
sI41
F0.329
sI43
F0.415
sI45
F0.278
sI47
F0.23
sI49
F0.323
sI51
F0.34
sI53
F0.343
sI55
F0.369
sI57
F0.39
sI59
F0.311
sI61
F0.328
sI63
F0.346
sI65
F0.35
sI67
F0.393
sI69
F0.291
sI71
F0.299
sI73
F0.319
sI75
F0.337
sI77
F0.391
sI79
F0.303
sI81
F0.312
sI83
F0.426
sI85
F0.25
sI87
F0.285
sI89
F0.638
sI91
F0.521
sI93
F0.297
sI95
F0.424
sI97
F0.626
sI99
F0.347
sI101
F0.313
sI103
F0.297
sI105
F0.63
sI107
F0.3
sI109
F0.262
sI111
F0.319
sI113
F0.303
sI115
F0.302
sI117
F0.331
sI119
F0.316
sI121
F0.337
sI123
F0.491
sI125
F0.362
sI127
F0.511
sI129
F0.372
sI131
F0.345
sI133
F0.303
sI135
F0.317
sI137
F0.247
sI139
F0.305
sI141
F0.53
sI143
F0.39
sI145
F0.313
sI147
F0.382
sI149
F0.381
sI151
F0.317
sI153
F0.434
sI155
F0.339
sI157
F0.487
sI159
F0.296
sI161
F0.271
sI163
F0.445
sI165
F0.439
sI167
F0.515
sI169
F0.293
sI171
F0.289
sI173
F0.37
sI175
F0.306
sI177
F0.38
sI179
F0.266
sI181
F0.33
sI183
F0.291
ssS'IA'
p61
(dp62
I0
F0.413
sI1
F0.281
sI3
F0.26
sI5
F0.345
sI7
F0.301
sI9
F0.302
sI11
F0.325
sI13
F0.491
sI15
F0.392
sI17
F0.381
sI19
F0.38
sI21
F0.338
sI23
F0.276
sI25
F0.26
sI27
F0.302
sI29
F0.262
sI31
F0.363
sI33
F0.419
sI35
F0.253
sI37
F0.348
sI39
F0.328
sI41
F0.255
sI43
F0.35
sI45
F0.44
sI47
F0.288
sI49
F0.387
sI51
F0.262
sI53
F0.319
sI55
F0.305
sI57
F0.443
sI59
F0.278
sI61
F0.453
sI63
F0.281
sI65
F0.359
sI67
F0.388
sI69
F0.284
sI71
F0.254
sI73
F0.335
sI75
F0.248
sI77
F0.291
sI79
F0.337
sI81
F0.261
sI83
F0.314
sI85
F0.281
sI87
F0.311
sI89
F0.364
sI91
F0.233
sI93
F0.2
sI95
F0.329
sI97
F0.376
sI99
F0.374
sI101
F0.477
sI103
F0.65
sI105
F0.358
sI107
F0.246
sI109
F0.29
sI111
F0.422
sI113
F0.489
sI115
F0.326
sI117
F0.28
sI119
F0.137
sI121
F0.302
sI123
F0.244
sI125
F0.301
sI127
F0.421
sI129
F0.27
sI131
F0.332
sI133
F0.263
sI135
F0.314
sI137
F0.252
sI139
F0.424
sI141
F0.168
sI143
F0.164
sI145
F0.245
sI147
F0.279
sI149
F0.206
sI151
F0.239
sI153
F0.51
sI155
F0.361
sI157
F0.431
sI159
F0.264
sI161
F0.23
sI163
F0.466
sI165
F0.257
sI167
F0.115
sI169
F0.51
sI171
F0.362
sI173
F0.24
sI175
F0.323
sI177
F0.238
sI179
F0.386
sI181
F0.374
sI183
F0.343
sI185
F0.242
sI187
F0.357
sI189
F0.322
sI191
F0.453
sI193
F0.367
sI195
F0.347
sI197
F0.301
ssS'OK'
p63
(dp64
I149
F0.0
sI1
F0.0
sI3
F0.0
sI5
F0.0
sI0
F0.066
sI7
F0.0
sI145
F0.0
sI9
F0.0
sI11
F0.0
sI13
F0.0
sI15
F0.0
sI141
F0.0
sI17
F0.0
sI19
F0.0
sI21
F0.0
sI23
F0.0
sI137
F0.0
sI25
F0.0
sI27
F0.0
sI29
F0.0
sI31
F0.0
sI133
F0.0
sI33
F0.0
sI35
F0.0
sI37
F0.0
sI39
F0.0
sI129
F0.0
sI41
F0.0
sI43
F0.0
sI45
F0.0
sI47
F0.0
sI49
F0.0
sI51
F0.0
sI53
F0.0
sI55
F0.0
sI57
F0.0
sI59
F0.0
sI151
F0.0
sI61
F0.0
sI63
F0.0
sI65
F0.0
sI67
F0.0
sI147
F0.0
sI69
F0.0
sI71
F0.0
sI73
F0.0
sI75
F0.0
sI143
F0.0
sI77
F0.0
sI79
F0.0
sI81
F0.0
sI83
F0.0
sI139
F0.0
sI85
F0.0
sI87
F0.0
sI89
F0.0
sI91
F0.0
sI135
F0.0
sI93
F0.0
sI95
F0.0
sI97
F0.0
sI99
F0.0
sI131
F0.0
sI101
F0.0
sI103
F0.0
sI105
F0.0
sI107
F0.0
sI109
F0.0
sI111
F0.0
sI113
F0.0
sI115
F0.0
sI117
F0.0
sI119
F0.0
sI153
F0.0
sI121
F0.0
sI123
F0.0
sI125
F0.0
sI127
F0.0
ssS'AZ'
p65
(dp66
I0
F0.424
sI1
F0.705
sI3
F0.384
sI5
F0.588
sI7
F0.341
sI9
F0.296
sI11
F0.383
sI12
F0.293
sI13
F0.452
sI15
F0.254
sI17
F0.478
sI19
F0.545
sI21
F0.397
sI23
F0.697
sI25
F0.339
sI27
F0.44
ssS'ID'
p67
(dp68
I0
F0.308
sI1
F0.428
sI3
F0.225
sI5
F0.372
sI7
F0.106
sI9
F0.197
sI11
F0.205
sI13
F0.61
sI15
F0.24
sI17
F0.327
sI19
F0.238
sI21
F0.193
sI23
F0.156
sI25
F0.223
sI27
F0.258
sI29
F0.116
sI31
F0.142
sI33
F0.151
sI35
F0.198
sI37
F0.198
sI39
F0.231
sI41
F0.088
sI43
F0.135
sI45
F0.181
sI47
F0.199
sI49
F0.162
sI51
F0.11
sI53
F0.215
sI55
F0.256
sI57
F0.489
sI59
F0.196
sI61
F0.178
sI63
F0.226
sI65
F0.109
sI67
F0.186
sI69
F0.292
sI71
F0.107
sI73
F0.164
sI75
F0.176
sI77
F0.277
sI79
F0.297
sI81
F0.472
sI83
F0.245
sI85
F0.383
sI87
F0.199
ssS'CT'
p69
(dp70
I0
F0.634
sI1
F0.6
sI3
F0.643
sI5
F0.479
sI7
F0.589
sI9
F0.611
sI11
F0.592
sI13
F0.575
sI15
F0.534
ssS'ME'
p71
(dp72
I0
F0.519
sI1
F1.0
sI3
F1.0
sI5
F1.0
sI7
F1.0
sI9
F1.0
sI11
F1.0
sI13
F1.0
sI15
F1.0
sI17
F1.0
sI19
F1.0
sI21
F1.0
sI23
F1.0
sI25
F1.0
sI27
F1.0
sI29
F1.0
sI31
F1.0
ssS'MD'
p73
(dp74
I0
F0.623
sI1
F0.291
sI3
F0.498
sI5
F0.586
sI9
F0.41
sI11
F0.314
sI13
F0.305
sI15
F0.33
sI17
F0.656
sI19
F0.436
sI21
F0.479
sI23
F0.19
sI25
F0.37
sI27
F0.653
sI29
F0.479
sI31
F0.779
sI33
F0.912
sI35
F0.319
sI37
F0.376
sI39
F0.416
sI41
F0.442
sI43
F0.354
sI45
F0.443
sI47
F0.364
sI510
F0.877
ssS'MA'
p75
(dp76
I0
F0.729
sI1
F0.571
sI3
F0.722
sI5
F0.549
sI7
F0.771
sI9
F0.619
sI11
F0.702
sI13
F0.586
sI15
F0.712
sI17
F0.702
sI19
F0.687
sI21
F0.648
sI23
F0.538
sI25
F0.828
sI27
F0.556
ssS'OH'
p77
(dp78
I0
F0.402
sI1
F0.209
sI3
F0.275
sI5
F0.237
sI7
F0.387
sI9
F0.582
sI11
F0.154
sI13
F0.307
sI15
F0.211
sI17
F0.314
sI19
F0.248
sI21
F0.245
sI23
F0.356
sI25
F0.243
sI27
F0.207
sI29
F0.28
sI31
F0.26
sI33
F0.242
sI35
F0.638
sI37
F0.164
sI39
F0.303
sI41
F0.357
sI43
F0.419
sI45
F0.332
sI47
F0.243
sI49
F0.585
sI51
F0.286
sI53
F0.249
sI55
F0.326
sI57
F0.328
sI59
F0.263
sI61
F0.493
sI63
F0.257
sI65
F0.236
sI67
F0.262
sI69
F0.262
sI71
F0.204
sI73
F0.312
sI75
F0.16
sI77
F0.289
sI79
F0.261
sI81
F0.333
sI83
F0.284
sI85
F0.386
sI87
F0.303
sI89
F0.324
sI91
F0.2
sI93
F0.465
sI95
F0.555
sI97
F0.266
sI99
F0.497
sI101
F0.305
sI103
F0.337
sI105
F0.267
sI107
F0.151
sI109
F0.222
sI111
F0.309
sI113
F0.447
sI115
F0.283
sI117
F0.233
sI119
F0.285
sI121
F0.218
sI123
F0.358
sI125
F0.278
sI127
F0.289
sI129
F0.266
sI131
F0.326
sI133
F0.423
sI135
F0.199
sI137
F0.152
sI139
F0.297
sI141
F0.344
sI143
F0.338
sI145
F0.327
sI147
F0.303
sI149
F0.162
sI151
F0.384
sI153
F0.509
sI155
F0.45
sI157
F0.302
sI159
F0.265
sI161
F0.211
sI163
F0.283
sI165
F0.26
sI167
F0.315
sI169
F0.295
sI171
F0.25
sI173
F0.412
sI175
F0.234
ssS'UT'
p79
(dp80
I0
F0.265
sI1
F0.126
sI3
F0.132
sI5
F0.249
sI7
F0.251
sI9
F0.202
sI11
F0.274
sI13
F0.09
sI15
F0.5
sI17
F0.171
sI19
F0.5
sI21
F0.5
sI23
F0.21
sI25
F0.253
sI27
F0.098
sI29
F0.5
sI31
F0.5
sI33
F0.11
sI35
F0.521
sI37
F0.329
sI39
F0.126
sI41
F0.102
sI43
F0.554
sI45
F0.269
sI47
F0.098
sI49
F0.168
sI51
F0.288
sI53
F0.192
sI55
F0.204
sI57
F0.347
ssS'MO'
p81
(dp82
I0
F0.449
sI1
F0.405
sI3
F0.316
sI5
F0.269
sI7
F0.352
sI9
F0.255
sI11
F0.188
sI13
F0.327
sI15
F0.303
sI17
F0.213
sI19
F0.558
sI21
F0.431
sI23
F0.234
sI25
F0.309
sI27
F0.356
sI29
F0.284
sI31
F0.293
sI33
F0.272
sI35
F0.226
sI37
F0.387
sI39
F0.233
sI41
F0.337
sI43
F0.268
sI45
F0.309
sI47
F0.488
sI49
F0.358
sI51
F0.378
sI53
F0.335
sI55
F0.284
sI57
F0.238
sI59
F0.255
sI61
F0.312
sI63
F0.283
sI65
F0.225
sI67
F0.216
sI69
F0.288
sI71
F0.354
sI73
F0.292
sI75
F0.302
sI77
F0.392
sI79
F0.264
sI81
F0.256
sI83
F0.348
sI85
F0.304
sI87
F0.255
sI89
F0.372
sI91
F0.235
sI93
F0.336
sI95
F0.616
sI97
F0.272
sI99
F0.409
sI101
F0.377
sI103
F0.301
sI105
F0.23
sI107
F0.36
sI109
F0.245
sI111
F0.305
sI113
F0.341
sI115
F0.329
sI117
F0.298
sI119
F0.214
sI121
F0.281
sI123
F0.295
sI125
F0.28
sI127
F0.3
sI129
F0.213
sI131
F0.24
sI133
F0.367
sI135
F0.284
sI137
F0.297
sI139
F0.308
sI141
F0.291
sI143
F0.353
sI145
F0.239
sI147
F0.346
sI149
F0.271
sI151
F0.261
sI153
F0.238
sI155
F0.367
sI157
F0.272
sI159
F0.335
sI161
F0.331
sI163
F0.351
sI165
F0.471
sI167
F0.261
sI169
F0.282
sI171
F0.206
sI173
F0.306
sI175
F0.32
sI177
F0.408
sI179
F0.283
sI181
F0.221
sI183
F0.42
sI185
F0.297
sI186
F0.43
sI187
F0.364
sI189
F0.602
sI195
F0.412
sI197
F0.271
sI199
F0.275
sI201
F0.289
sI203
F0.3
sI205
F0.279
sI207
F0.219
sI209
F0.234
sI211
F0.283
sI213
F0.245
sI215
F0.236
sI217
F0.284
sI219
F0.352
sI221
F0.325
sI223
F0.248
sI225
F0.266
sI227
F0.27
sI229
F0.208
sI510
F0.837
ssS'MN'
p83
(dp84
I0
F0.518
sI1
F0.362
sI3
F0.447
sI5
F0.324
sI7
F0.446
sI9
F0.305
sI11
F0.364
sI13
F0.479
sI15
F0.302
sI17
F0.509
sI19
F0.425
sI21
F0.331
sI23
F0.344
sI25
F0.335
sI27
F0.489
sI29
F0.273
sI31
F0.623
sI33
F0.313
sI35
F0.33
sI37
F0.524
sI39
F0.322
sI41
F0.308
sI43
F0.316
sI45
F0.382
sI47
F0.407
sI49
F0.402
sI51
F0.349
sI53
F0.691
sI55
F0.425
sI57
F0.321
sI59
F0.293
sI61
F0.411
sI63
F0.292
sI65
F0.308
sI67
F0.362
sI69
F0.379
sI71
F0.393
sI73
F0.362
sI75
F0.512
sI77
F0.264
sI79
F0.335
sI81
F0.308
sI83
F0.345
sI85
F0.291
sI87
F0.484
sI89
F0.276
sI91
F0.279
sI93
F0.283
sI95
F0.308
sI97
F0.22
sI99
F0.458
sI101
F0.303
sI103
F0.483
sI105
F0.34
sI107
F0.427
sI109
F0.504
sI111
F0.308
sI113
F0.349
sI115
F0.359
sI117
F0.252
sI119
F0.344
sI121
F0.357
sI123
F0.714
sI125
F0.321
sI127
F0.269
sI129
F0.302
sI131
F0.483
sI133
F0.308
sI135
F0.254
sI137
F0.564
sI139
F0.416
sI141
F0.3
sI143
F0.273
sI145
F0.349
sI147
F0.358
sI149
F0.43
sI151
F0.362
sI153
F0.247
sI155
F0.375
sI157
F0.356
sI159
F0.258
sI161
F0.322
sI163
F0.51
sI165
F0.396
sI167
F0.295
sI169
F0.484
sI171
F0.32
sI173
F0.314
ssS'MI'
p85
(dp86
I149
F0.336
sI1
F0.292
sI3
F0.391
sI5
F0.347
sI0
F0.494
sI7
F0.349
sI145
F0.494
sI9
F0.344
sI11
F0.322
sI13
F0.349
sI161
F0.718
sI15
F0.322
sI141
F0.349
sI17
F0.433
sI19
F0.426
sI21
F0.433
sI23
F0.301
sI137
F0.301
sI25
F0.434
sI27
F0.338
sI29
F0.372
sI31
F0.331
sI133
F0.269
sI33
F0.371
sI35
F0.333
sI37
F0.433
sI39
F0.326
sI129
F0.307
sI41
F0.367
sI43
F0.314
sI159
F0.426
sI45
F0.471
sI47
F0.396
sI49
F0.55
sI51
F0.318
sI155
F0.395
sI53
F0.421
sI55
F0.433
sI57
F0.364
sI163
F0.694
sI59
F0.254
sI151
F0.266
sI61
F0.415
sI63
F0.301
sI65
F0.643
sI67
F0.334
sI147
F0.334
sI69
F0.342
sI71
F0.353
sI73
F0.48
sI75
F0.393
sI143
F0.345
sI77
F0.568
sI79
F0.268
sI81
F0.484
sI83
F0.393
sI139
F0.338
sI85
F0.38
sI87
F0.298
sI89
F0.483
sI91
F0.388
sI135
F0.269
sI93
F0.344
sI95
F0.279
sI97
F0.358
sI99
F0.44
sI131
F0.362
sI101
F0.419
sI165
F0.307
sI103
F0.523
sI105
F0.383
sI107
F0.361
sI109
F0.346
sI111
F0.396
sI157
F0.301
sI113
F0.225
sI115
F0.383
sI117
F0.318
sI119
F0.269
sI153
F0.349
sI121
F0.505
sI123
F0.29
sI125
F0.543
sI127
F0.355
ssS'RI'
p87
(dp88
I0
F0.648
sI1
F0.605
sI3
F0.489
sI5
F0.595
sI7
F0.607
sI9
F0.543
ssS'KS'
p89
(dp90
I0
F0.327
sI1
F0.257
sI3
F0.223
sI5
F0.318
sI7
F0.132
sI9
F0.163
sI11
F0.231
sI13
F0.211
sI15
F0.244
sI17
F0.227
sI19
F0.137
sI21
F0.256
sI23
F0.115
sI25
F0.118
sI27
F0.152
sI29
F0.184
sI31
F0.178
sI33
F0.123
sI35
F0.289
sI37
F0.368
sI39
F0.11
sI41
F0.189
sI43
F0.187
sI45
F0.654
sI47
F0.15
sI49
F0.132
sI51
F0.216
sI53
F0.179
sI55
F0.286
sI57
F0.257
sI59
F0.278
sI61
F0.343
sI63
F0.103
sI65
F0.131
sI67
F0.169
sI69
F0.124
sI71
F0.108
sI73
F0.18
sI75
F0.121
sI77
F0.161
sI79
F0.336
sI81
F0.15
sI83
F0.107
sI85
F0.267
sI87
F0.321
sI89
F0.112
sI91
F0.448
sI93
F0.15
sI95
F0.173
sI97
F0.099
sI99
F0.303
sI101
F0.113
sI103
F0.362
sI105
F0.142
sI107
F0.186
sI109
F0.099
sI111
F0.365
sI113
F0.241
sI115
F0.199
sI117
F0.22
sI119
F0.112
sI121
F0.276
sI123
F0.147
sI125
F0.238
sI127
F0.205
sI129
F0.113
sI131
F0.142
sI133
F0.248
sI135
F0.096
sI137
F0.122
sI139
F0.258
sI141
F0.124
sI143
F0.146
sI145
F0.201
sI147
F0.101
sI149
F0.203
sI151
F0.19
sI153
F0.103
sI155
F0.274
sI157
F0.135
sI159
F0.188
sI161
F0.407
sI163
F0.102
sI165
F0.137
sI167
F0.138
sI169
F0.282
sI171
F0.1
sI173
F0.376
sI175
F0.3
sI177
F0.453
sI179
F0.093
sI181
F0.13
sI183
F0.131
sI185
F0.149
sI187
F0.158
sI189
F0.121
sI191
F0.233
sI193
F0.132
sI195
F0.139
sI197
F0.22
sI199
F0.053
sI201
F0.129
sI203
F0.14
sI205
F0.161
sI207
F0.2
sI209
F0.647
ssS'MT'
p91
(dp92
I0
F0.463
sI1
F0.335
sI3
F0.589
sI5
F0.545
sI7
F0.306
sI9
F0.401
sI11
F0.13
sI13
F0.48
sI15
F0.395
sI17
F0.326
sI19
F0.227
sI21
F0.224
sI23
F0.636
sI25
F0.182
sI27
F0.299
sI29
F0.365
sI31
F0.543
sI33
F0.105
sI35
F0.704
sI37
F0.26
sI39
F0.368
sI41
F0.503
sI43
F0.397
sI45
F0.31
sI47
F0.448
sI49
F0.544
sI51
F0.315
sI53
F0.3
sI55
F0.196
sI57
F0.344
sI59
F0.295
sI61
F0.367
sI63
F0.631
sI65
F0.231
sI67
F0.485
sI69
F0.166
sI71
F0.192
sI73
F0.39
sI75
F0.188
sI77
F0.311
sI79
F0.206
sI81
F0.363
sI83
F0.19
sI85
F0.52
sI87
F0.361
sI89
F0.31
sI91
F0.355
sI93
F0.656
sI95
F0.284
sI97
F0.271
sI99
F0.363
sI101
F0.306
sI103
F0.258
sI105
F0.318
sI107
F0.317
sI109
F0.191
sI111
F0.428
ssS'MS'
p93
(dp94
I149
F0.475
sI1
F0.575
sI3
F0.183
sI5
F0.386
sI0
F0.394
sI7
F0.399
sI145
F0.177
sI9
F0.432
sI11
F0.664
sI13
F0.302
sI161
F0.433
sI15
F0.304
sI141
F0.122
sI17
F0.469
sI19
F0.302
sI21
F0.859
sI23
F0.334
sI137
F0.34
sI25
F0.579
sI27
F0.74
sI29
F0.527
sI31
F0.376
sI133
F0.703
sI33
F0.321
sI35
F0.427
sI37
F0.354
sI39
F0.105
sI129
F0.214
sI41
F0.182
sI43
F0.425
sI159
F0.437
sI45
F0.195
sI47
F0.342
sI49
F0.726
sI51
F0.835
sI155
F0.202
sI53
F0.742
sI55
F0.57
sI57
F0.116
sI163
F0.537
sI59
F0.295
sI151
F0.684
sI61
F0.52
sI63
F0.872
sI65
F0.601
sI67
F0.278
sI147
F0.409
sI69
F0.614
sI71
F0.423
sI73
F0.214
sI75
F0.383
sI143
F0.754
sI77
F0.349
sI79
F0.428
sI81
F0.308
sI83
F0.708
sI139
F0.201
sI85
F0.297
sI87
F0.468
sI89
F0.418
sI91
F0.317
sI135
F0.576
sI93
F0.549
sI95
F0.352
sI97
F0.432
sI99
F0.26
sI131
F0.225
sI101
F0.301
sI103
F0.786
sI105
F0.506
sI107
F0.498
sI109
F0.158
sI111
F0.228
sI157
F0.684
sI113
F0.496
sI115
F0.184
sI117
F0.213
sI119
F0.698
sI153
F0.37
sI121
F0.229
sI123
F0.411
sI125
F0.676
sI127
F0.352
ssS'SC'
p95
(dp96
I0
F0.391
sI1
F0.351
sI3
F0.345
sI5
F0.769
sI7
F0.259
sI9
F0.639
sI11
F0.471
sI13
F0.39
sI15
F0.372
sI17
F0.476
sI19
F0.482
sI21
F0.287
sI23
F0.486
sI25
F0.43
sI27
F0.503
sI29
F0.436
sI31
F0.471
sI33
F0.487
sI35
F0.37
sI37
F0.395
sI39
F0.616
sI41
F0.455
sI43
F0.41
sI45
F0.339
sI47
F0.372
sI49
F0.597
sI51
F0.292
sI53
F0.543
sI55
F0.358
sI57
F0.366
sI59
F0.33
sI61
F0.648
sI63
F0.283
sI65
F0.469
sI67
F0.6
sI69
F0.581
sI71
F0.374
sI73
F0.23
sI75
F0.681
sI77
F0.206
sI79
F0.63
sI81
F0.334
sI83
F0.326
sI85
F0.551
sI87
F0.401
sI89
F0.657
sI91
F0.374
ssS'KY'
p97
(dp98
I0
F0.39
sI1
F0.213
sI3
F0.209
sI5
F0.319
sI7
F0.271
sI9
F0.325
sI11
F0.394
sI13
F0.232
sI15
F0.272
sI17
F0.417
sI19
F0.39
sI21
F0.405
sI23
F0.243
sI25
F0.381
sI27
F0.304
sI29
F0.298
sI31
F0.22
sI33
F0.282
sI35
F0.35
sI37
F0.361
sI39
F0.235
sI41
F0.364
sI43
F0.336
sI45
F0.182
sI47
F0.345
sI49
F0.375
sI51
F0.173
sI53
F0.143
sI55
F0.217
sI57
F0.186
sI59
F0.372
sI61
F0.255
sI63
F0.413
sI65
F0.281
sI67
F0.578
sI69
F0.319
sI71
F0.367
sI73
F0.53
sI75
F0.386
sI77
F0.26
sI79
F0.266
sI81
F0.228
sI83
F0.269
sI85
F0.256
sI87
F0.221
sI89
F0.355
sI91
F0.374
sI93
F0.382
sI95
F0.195
sI97
F0.363
sI99
F0.308
sI101
F0.406
sI103
F0.333
sI105
F0.276
sI107
F0.271
sI109
F0.137
sI111
F0.58
sI113
F0.348
sI115
F0.229
sI117
F0.35
sI119
F0.327
sI121
F0.22
sI123
F0.28
sI125
F0.197
sI127
F0.278
sI129
F0.259
sI131
F0.124
sI133
F0.271
sI135
F0.219
sI137
F0.276
sI139
F0.266
sI141
F0.28
sI143
F0.328
sI145
F0.338
sI147
F0.17
sI149
F0.301
sI151
F0.39
sI153
F0.337
sI155
F0.429
sI157
F0.297
sI159
F0.168
sI161
F0.329
sI163
F0.34
sI165
F0.35
sI167
F0.316
sI169
F0.294
sI171
F0.154
sI173
F0.37
sI175
F0.326
sI177
F0.343
sI179
F0.377
sI181
F0.401
sI183
F0.276
sI185
F0.345
sI187
F0.266
sI189
F0.219
sI191
F0.228
sI193
F0.294
sI195
F0.284
sI197
F0.361
sI199
F0.217
sI201
F0.287
sI203
F0.194
sI205
F0.46
sI207
F0.198
sI209
F0.395
sI211
F0.358
sI213
F0.325
sI215
F0.265
sI217
F0.291
sI219
F0.237
sI221
F0.265
sI223
F0.312
sI225
F0.298
sI227
F0.385
sI229
F0.329
sI231
F0.256
sI233
F0.285
sI235
F0.218
sI237
F0.394
sI239
F0.446
ssS'OR'
p99
(dp100
I0
F0.508
sI1
F0.224
sI3
F0.686
sI5
F0.533
sI7
F0.533
sI9
F0.434
sI11
F0.369
sI13
F0.236
sI15
F0.373
sI17
F0.49
sI19
F0.289
sI21
F0.259
sI23
F0.187
sI25
F0.19
sI27
F0.664
sI29
F0.451
sI31
F0.351
sI33
F0.332
sI35
F0.26
sI37
F0.173
sI39
F0.603
sI41
F0.554
sI43
F0.348
sI45
F0.237
sI47
F0.473
sI49
F0.271
sI51
F0.812
sI53
F0.462
sI55
F0.218
sI57
F0.468
sI59
F0.308
sI61
F0.278
sI63
F0.28
sI65
F0.448
sI67
F0.645
sI69
F0.208
sI71
F0.452
ssS'SD'
p101
(dp102
I0
F0.32
sI129
F0.195
sI3
F0.25
sI5
F0.281
sI7
F0.358
sI9
F0.253
sI11
F0.362
sI13
F0.328
sI15
F0.254
sI17
F0.578
sI19
F0.173
sI21
F0.117
sI23
F0.278
sI137
F0.469
sI25
F0.251
sI27
F0.487
sI29
F0.272
sI31
F0.443
sI33
F0.252
sI35
F0.28
sI37
F0.36
sI39
F0.274
sI41
F0.52
sI43
F0.14
sI45
F0.208
sI47
F0.246
sI49
F0.187
sI51
F0.268
sI53
F0.2
sI55
F0.078
sI57
F0.202
sI59
F0.187
sI61
F0.225
sI63
F0.075
sI65
F0.274
sI67
F0.197
sI69
F0.183
sI71
F0.297
sI73
F0.277
sI75
F0.126
sI77
F0.278
sI79
F0.333
sI81
F0.293
sI83
F0.289
sI85
F0.269
sI87
F0.243
sI89
F0.158
sI91
F0.366
sI135
F0.344
sI93
F0.206
sI95
F0.348
sI97
F0.272
sI99
F0.372
sI101
F0.352
sI102
F0.841
sI103
F0.3
sI105
F0.134
sI107
F0.178
sI109
F0.383
sI111
F0.221
sI115
F0.301
sI117
F0.208
sI119
F0.163
sI121
F0.704
sI123
F0.185
sI125
F0.227
sI127
F0.262
ss.