(dp0
S'WA'
p1
(dp2
I0
(dp3
S'GOP'
p4
F2491078.0
sS'Dem'
p5
F3452633.0
ssI1
(dp6
g4
F6242.0
sg5
F3037.0
ssI3
(dp7
g4
F14633.0
sg5
F10066.0
ssI5
(dp8
g4
F81146.0
sg5
F54076.0
ssI7
(dp9
g4
F26900.0
sg5
F21135.0
ssI9
(dp10
g4
F36494.0
sg5
F39543.0
ssI11
(dp11
g4
F211169.0
sg5
F224352.0
ssI13
(dp12
g4
F3922.0
sg5
F1871.0
ssI15
(dp13
g4
F38796.0
sg5
F34518.0
ssI17
(dp14
g4
F9872.0
sg5
F5872.0
ssI19
(dp15
g4
F5700.0
sg5
F3456.0
ssI21
(dp16
g4
F16914.0
sg5
F11590.0
ssI23
(dp17
g4
F2347.0
sg5
F1068.0
ssI25
(dp18
g4
F44978.0
sg5
F21209.0
ssI27
(dp19
g4
F28686.0
sg5
F29062.0
ssI29
(dp20
g4
F46974.0
sg5
F55169.0
ssI31
(dp21
g4
F16012.0
sg5
F34038.0
ssI33
(dp22
g4
F471998.0
sg5
F1360517.0
ssI35
(dp23
g4
F105601.0
sg5
F140491.0
ssI37
(dp24
g4
F21874.0
sg5
F16896.0
ssI39
(dp25
g4
F9170.0
sg5
F7469.0
ssI41
(dp26
g4
F27899.0
sg5
F15595.0
ssI43
(dp27
g4
F10438.0
sg5
F4197.0
ssI45
(dp28
g4
F33398.0
sg5
F32020.0
ssI47
(dp29
g4
F11928.0
sg5
F8981.0
ssI49
(dp30
g4
F12892.0
sg5
F13317.0
ssI51
(dp31
g4
F10626.0
sg5
F5998.0
ssI53
(dp32
g4
F265455.0
sg5
F313481.0
ssI55
(dp33
g4
F6736.0
sg5
F17070.0
ssI57
(dp34
g4
F43980.0
sg5
F52031.0
ssI59
(dp35
g4
F6293.0
sg5
F5299.0
ssI61
(dp36
g4
F240667.0
sg5
F331354.0
ssI63
(dp37
g4
F218854.0
sg5
F207254.0
ssI65
(dp38
g4
F25298.0
sg5
F12241.0
ssI67
(dp39
g4
F104351.0
sg5
F150074.0
ssI69
(dp40
g4
F3341.0
sg5
F2528.0
ssI71
(dp41
g4
F20353.0
sg5
F16719.0
ssI73
(dp42
g4
F97967.0
sg5
F139314.0
ssI75
(dp43
g4
F8024.0
sg5
F9338.0
ssI77
(dp44
g4
F60953.0
sg5
F46626.0
sssS'DE'
p45
(dp46
I0
(dp47
g4
F339139.0
sg5
F481944.0
ssI1
(dp48
g4
F71766.0
sg5
F69301.0
ssI3
(dp49
g4
F163344.0
sg5
F328878.0
ssI5
(dp50
g4
F116842.0
sg5
F85804.0
sssS'DC'
p51
(dp52
I0
(dp53
g4
I0
sg5
I0
ssI1
(dp54
g4
F11553.0
sg5
F260223.0
sssS'WI'
p55
(dp56
I0
(dp57
g4
F2749547.0
sg5
F2503693.0
ssI1
(dp58
g4
F11329.0
sg5
F7873.0
ssI3
(dp59
g4
F6765.0
sg5
F8485.0
ssI5
(dp60
g4
F26458.0
sg5
F16572.0
ssI7
(dp61
g4
F8147.0
sg5
F10114.0
ssI9
(dp62
g4
F138942.0
sg5
F104362.0
ssI11
(dp63
g4
F7899.0
sg5
F5277.0
ssI13
(dp64
g4
F10410.0
sg5
F6091.0
ssI15
(dp65
g4
F31827.0
sg5
F18819.0
ssI141
(dp66
g4
F42427.0
sg5
F29416.0
ssI17
(dp67
g4
F35250.0
sg5
F24534.0
ssI19
(dp68
g4
F16796.0
sg5
F9002.0
ssI21
(dp69
g4
F27717.0
sg5
F28581.0
ssI23
(dp70
g4
F7515.0
sg5
F7134.0
ssI137
(dp71
g4
F15248.0
sg5
F7641.0
ssI25
(dp72
g4
F151932.0
sg5
F437832.0
ssI27
(dp73
g4
F53720.0
sg5
F28728.0
ssI29
(dp74
g4
F17879.0
sg5
F15697.0
ssI31
(dp75
g4
F19018.0
sg5
F23233.0
ssI133
(dp76
g4
F306866.0
sg5
F150977.0
ssI33
(dp77
g4
F22911.0
sg5
F18515.0
ssI35
(dp78
g4
F47942.0
sg5
F54776.0
ssI37
(dp79
g4
F3667.0
sg5
F1425.0
ssI39
(dp80
g4
F63508.0
sg5
F34522.0
ssI129
(dp81
g4
F10647.0
sg5
F6690.0
ssI41
(dp82
g4
F5377.0
sg5
F3232.0
ssI43
(dp83
g4
F24543.0
sg5
F20974.0
ssI45
(dp84
g4
F16799.0
sg5
F19327.0
ssI47
(dp85
g4
F12425.0
sg5
F5473.0
ssI49
(dp86
g4
F9488.0
sg5
F13810.0
ssI51
(dp87
g4
F4039.0
sg5
F2639.0
ssI53
(dp88
g4
F9509.0
sg5
F7908.0
ssI55
(dp89
g4
F47310.0
sg5
F33706.0
ssI57
(dp90
g4
F13621.0
sg5
F8797.0
ssI59
(dp91
g4
F73565.0
sg5
F71439.0
ssI61
(dp92
g4
F13294.0
sg5
F7320.0
ssI63
(dp93
g4
F54072.0
sg5
F65301.0
ssI65
(dp94
g4
F7636.0
sg5
F7045.0
ssI67
(dp95
g4
F12443.0
sg5
F6723.0
ssI69
(dp96
g4
F16431.0
sg5
F11155.0
ssI71
(dp97
g4
F47048.0
sg5
F28915.0
ssI73
(dp98
g4
F77577.0
sg5
F54288.0
ssI75
(dp99
g4
F25592.0
sg5
F12745.0
ssI77
(dp100
g4
F9066.0
sg5
F5998.0
ssI78
(dp101
g4
F572.0
sg5
F1847.0
ssI79
(dp102
g4
F274020.0
sg5
F565737.0
ssI81
(dp103
g4
F22240.0
sg5
F14720.0
ssI83
(dp104
g4
F26290.0
sg5
F11939.0
ssI139
(dp105
g4
F90289.0
sg5
F73131.0
ssI85
(dp106
g4
F23724.0
sg5
F16394.0
ssI87
(dp107
g4
F104915.0
sg5
F75218.0
ssI89
(dp108
g4
F65915.0
sg5
F38325.0
ssI91
(dp109
g4
F4325.0
sg5
F2836.0
ssI135
(dp110
g4
F32048.0
sg5
F16754.0
ssI93
(dp111
g4
F22680.0
sg5
F16725.0
ssI95
(dp112
g4
F27449.0
sg5
F15700.0
ssI97
(dp113
g4
F34856.0
sg5
F37507.0
ssI99
(dp114
g4
F8844.0
sg5
F5626.0
ssI131
(dp115
g4
F107690.0
sg5
F40684.0
ssI101
(dp116
g4
F96300.0
sg5
F84106.0
ssI103
(dp117
g4
F7856.0
sg5
F7482.0
ssI105
(dp118
g4
F61968.0
sg5
F81764.0
ssI107
(dp119
g4
F8793.0
sg5
F4614.0
ssI109
(dp120
g4
F53534.0
sg5
F35221.0
ssI111
(dp121
g4
F31010.0
sg5
F33914.0
ssI113
(dp122
g4
F9206.0
sg5
F5731.0
ssI115
(dp123
g4
F25336.0
sg5
F12160.0
ssI117
(dp124
g4
F67243.0
sg5
F44759.0
ssI119
(dp125
g4
F12766.0
sg5
F5225.0
ssI121
(dp126
g4
F14453.0
sg5
F11607.0
ssI123
(dp127
g4
F13704.0
sg5
F13237.0
ssI125
(dp128
g4
F16416.0
sg5
F9588.0
ssI127
(dp129
g4
F59632.0
sg5
F37064.0
sssS'WV'
p130
(dp131
I0
(dp132
g4
F742333.0
sg5
F570956.0
ssI1
(dp133
g4
F7424.0
sg5
F3900.0
ssI3
(dp134
g4
F51279.0
sg5
F27143.0
ssI5
(dp135
g4
F9092.0
sg5
F7419.0
ssI7
(dp136
g4
F5271.0
sg5
F4263.0
ssI9
(dp137
g4
F10633.0
sg5
F7086.0
ssI11
(dp138
g4
F31581.0
sg5
F29251.0
ssI13
(dp139
g4
F3176.0
sg5
F1643.0
ssI15
(dp140
g4
F3423.0
sg5
F2240.0
ssI17
(dp141
g4
F4078.0
sg5
F1260.0
ssI19
(dp142
g4
F14775.0
sg5
F13791.0
ssI21
(dp143
g4
F3000.0
sg5
F1725.0
ssI23
(dp144
g4
F7534.0
sg5
F1819.0
ssI25
(dp145
g4
F13824.0
sg5
F12298.0
ssI27
(dp146
g4
F11847.0
sg5
F4105.0
ssI29
(dp147
g4
F14838.0
sg5
F8542.0
ssI31
(dp148
g4
F7759.0
sg5
F3629.0
ssI33
(dp149
g4
F30560.0
sg5
F21955.0
ssI35
(dp150
g4
F14047.0
sg5
F8814.0
ssI37
(dp151
g4
F24691.0
sg5
F18993.0
ssI39
(dp152
g4
F67076.0
sg5
F72378.0
ssI41
(dp153
g4
F8524.0
sg5
F4537.0
ssI43
(dp154
g4
F7760.0
sg5
F5537.0
ssI45
(dp155
g4
F14348.0
sg5
F8843.0
ssI47
(dp156
g4
F7097.0
sg5
F4877.0
ssI49
(dp157
g4
F23500.0
sg5
F19024.0
ssI51
(dp158
g4
F15205.0
sg5
F9335.0
ssI53
(dp159
g4
F11630.0
sg5
F7603.0
ssI55
(dp160
g4
F29993.0
sg5
F13985.0
ssI57
(dp161
g4
F15922.0
sg5
F5455.0
ssI59
(dp162
g4
F11560.0
sg5
F6508.0
ssI61
(dp163
g4
F32511.0
sg5
F30445.0
ssI63
(dp164
g4
F6841.0
sg5
F3821.0
ssI65
(dp165
g4
F10468.0
sg5
F3493.0
ssI67
(dp166
g4
F10495.0
sg5
F7534.0
ssI69
(dp167
g4
F19068.0
sg5
F13786.0
ssI71
(dp168
g4
F3948.0
sg5
F2059.0
ssI73
(dp169
g4
F3622.0
sg5
F2323.0
ssI75
(dp170
g4
F3694.0
sg5
F2880.0
ssI77
(dp171
g4
F16053.0
sg5
F6414.0
ssI79
(dp172
g4
F27226.0
sg5
F18960.0
ssI81
(dp173
g4
F32873.0
sg5
F23019.0
ssI83
(dp174
g4
F12064.0
sg5
F7817.0
ssI85
(dp175
g4
F5882.0
sg5
F1759.0
ssI87
(dp176
g4
F5859.0
sg5
F4005.0
ssI89
(dp177
g4
F5231.0
sg5
F3907.0
ssI91
(dp178
g4
F7778.0
sg5
F4477.0
ssI93
(dp179
g4
F4161.0
sg5
F2228.0
ssI95
(dp180
g4
F4919.0
sg5
F1946.0
ssI97
(dp181
g4
F11669.0
sg5
F5475.0
ssI99
(dp182
g4
F16867.0
sg5
F11828.0
ssI101
(dp183
g4
F3544.0
sg5
F2015.0
ssI103
(dp184
g4
F6974.0
sg5
F4552.0
ssI105
(dp185
g4
F3007.0
sg5
F1544.0
ssI107
(dp186
g4
F40977.0
sg5
F25395.0
ssI109
(dp187
g4
F9161.0
sg5
F5888.0
sssS'HI'
p188
(dp189
I0
(dp190
g4
F289585.0
sg5
F839704.0
ssI1
(dp191
g4
F29734.0
sg5
F86588.0
ssI3
(dp192
g4
F144530.0
sg5
F352991.0
ssI9
(dp193
g4
F22335.0
sg5
F66101.0
ssI7
(dp194
g4
F12319.0
sg5
F35471.0
sssS'FL'
p195
(dp196
I0
(dp197
g4
F9543897.0
sg5
F8073486.0
ssI1
(dp198
g4
F100468.0
sg5
F144429.0
ssI3
(dp199
g4
F20195.0
sg5
F4247.0
ssI5
(dp200
g4
F124733.0
sg5
F41578.0
ssI7
(dp201
g4
F17633.0
sg5
F5618.0
ssI9
(dp202
g4
F362969.0
sg5
F232313.0
ssI11
(dp203
g4
F534451.0
sg5
F1064064.0
ssI13
(dp204
g4
F8972.0
sg5
F2505.0
ssI15
(dp205
g4
F120372.0
sg5
F63605.0
ssI17
(dp206
g4
F103104.0
sg5
F46779.0
ssI19
(dp207
g4
F152806.0
sg5
F50975.0
ssI21
(dp208
g4
F220872.0
sg5
F110299.0
ssI23
(dp209
g4
F40276.0
sg5
F14959.0
ssI27
(dp210
g4
F13554.0
sg5
F7093.0
ssI29
(dp211
g4
F10862.0
sg5
F2852.0
ssI31
(dp212
g4
F449113.0
sg5
F373505.0
ssI133
(dp213
g4
F16946.0
sg5
F4492.0
ssI33
(dp214
g4
F182063.0
sg5
F108135.0
ssI35
(dp215
g4
F66671.0
sg5
F43214.0
ssI37
(dp216
g4
F7973.0
sg5
F3558.0
ssI39
(dp217
g4
F13601.0
sg5
F29543.0
ssI129
(dp218
g4
F20274.0
sg5
F9200.0
ssI41
(dp219
g4
F13041.0
sg5
F3132.0
ssI43
(dp220
g4
F5923.0
sg5
F2467.0
ssI45
(dp221
g4
F10502.0
sg5
F3462.0
ssI47
(dp222
g4
F6485.0
sg5
F4002.0
ssI49
(dp223
g4
F10384.0
sg5
F4171.0
ssI51
(dp224
g4
F12871.0
sg5
F8498.0
ssI53
(dp225
g4
F112796.0
sg5
F64605.0
ssI55
(dp226
g4
F57570.0
sg5
F29372.0
ssI57
(dp227
g4
F548677.0
sg5
F586270.0
ssI59
(dp228
g4
F14508.0
sg5
F1827.0
ssI61
(dp229
g4
F96688.0
sg5
F57238.0
ssI63
(dp230
g4
F28027.0
sg5
F12735.0
ssI65
(dp231
g4
F7681.0
sg5
F7157.0
ssI67
(dp232
g4
F5354.0
sg5
F1180.0
ssI69
(dp233
g4
F202292.0
sg5
F121535.0
ssI71
(dp234
g4
F395698.0
sg5
F229168.0
ssI73
(dp235
g4
F113686.0
sg5
F178472.0
ssI75
(dp236
g4
F26661.0
sg5
F10372.0
ssI77
(dp237
g4
F4832.0
sg5
F1399.0
ssI79
(dp238
g4
F9431.0
sg5
F7090.0
ssI81
(dp239
g4
F204224.0
sg5
F137478.0
ssI83
(dp240
g4
F211994.0
sg5
F121420.0
ssI85
(dp241
g4
F102967.0
sg5
F63820.0
ssI86
(dp242
g4
F753289.0
sg5
F1151561.0
ssI87
(dp243
g4
F43492.0
sg5
F37669.0
ssI89
(dp244
g4
F69151.0
sg5
F20376.0
ssI91
(dp245
g4
F146434.0
sg5
F44466.0
ssI93
(dp246
g4
F17979.0
sg5
F8233.0
ssI95
(dp247
g4
F419801.0
sg5
F623025.0
ssI97
(dp248
g4
F107298.0
sg5
F160784.0
ssI99
(dp249
g4
F556789.0
sg5
F719082.0
ssI131
(dp250
g4
F51377.0
sg5
F13180.0
ssI101
(dp251
g4
F276574.0
sg5
F178518.0
ssI103
(dp252
g4
F474916.0
sg5
F455917.0
ssI105
(dp253
g4
F313191.0
sg5
F227326.0
ssI107
(dp254
g4
F43087.0
sg5
F19665.0
ssI109
(dp255
g4
F184326.0
sg5
F78562.0
ssI111
(dp256
g4
F136430.0
sg5
F136341.0
ssI113
(dp257
g4
F131826.0
sg5
F34624.0
ssI115
(dp258
g4
F248105.0
sg5
F189843.0
ssI117
(dp259
g4
F226804.0
sg5
F199803.0
ssI119
(dp260
g4
F104559.0
sg5
F43813.0
ssI121
(dp261
g4
F27608.0
sg5
F8430.0
ssI123
(dp262
g4
F13132.0
sg5
F4803.0
ssI125
(dp263
g4
F8879.0
sg5
F2078.0
ssI127
(dp264
g4
F282450.0
sg5
F213064.0
sssS'WY'
p265
(dp266
I0
(dp267
g4
F156040.0
sg5
F75419.0
ssI1
(dp268
g4
F7601.0
sg5
F6888.0
ssI3
(dp269
g4
F4067.0
sg5
F594.0
ssI5
(dp270
g4
F15778.0
sg5
F1324.0
ssI7
(dp271
g4
F4409.0
sg5
F1279.0
ssI9
(dp272
g4
F5520.0
sg5
F668.0
ssI11
(dp273
g4
F3347.0
sg5
F271.0
ssI13
(dp274
g4
F11167.0
sg5
F4200.0
ssI15
(dp275
g4
F4418.0
sg5
F924.0
ssI17
(dp276
g4
F1939.0
sg5
F400.0
ssI19
(dp277
g4
F3477.0
sg5
F638.0
ssI21
(dp278
g4
F24844.0
sg5
F11572.0
ssI23
(dp279
g4
F6779.0
sg5
F1105.0
ssI25
(dp280
g4
F23523.0
sg5
F6573.0
ssI27
(dp281
g4
F1116.0
sg5
F115.0
ssI29
(dp282
g4
F11115.0
sg5
F2535.0
ssI31
(dp283
g4
F3437.0
sg5
F719.0
ssI33
(dp284
g4
F10266.0
sg5
F2926.0
ssI35
(dp285
g4
F3409.0
sg5
F644.0
ssI37
(dp286
g4
F12153.0
sg5
F3233.0
ssI39
(dp287
g4
F3920.0
sg5
F7313.0
ssI41
(dp288
g4
F6154.0
sg5
F1202.0
ssI43
(dp289
g4
F2911.0
sg5
F532.0
ssI45
(dp290
g4
F2898.0
sg5
F294.0
sssS'NH'
p291
(dp292
I0
(dp293
g4
F1022338.0
sg5
F1026829.0
ssI1
(dp294
g4
F56798.0
sg5
F42329.0
ssI3
(dp295
g4
F44665.0
sg5
F38921.0
ssI5
(dp296
g4
F50723.0
sg5
F66344.0
ssI7
(dp297
g4
F22862.0
sg5
F20886.0
ssI9
(dp298
g4
F59383.0
sg5
F84260.0
ssI11
(dp299
g4
F308269.0
sg5
F292274.0
ssI13
(dp300
g4
F113377.0
sg5
F122452.0
ssI15
(dp301
g4
F276673.0
sg5
F235413.0
ssI17
(dp302
g4
F87108.0
sg5
F103908.0
ssI19
(dp303
g4
F32210.0
sg5
F31148.0
sssS'NJ'
p304
(dp305
I0
(dp306
g4
F1435606.0
sg5
F1659055.0
ssI1
(dp307
g4
F47741.0
sg5
F54175.0
ssI3
(dp308
g4
F163220.0
sg5
F209251.0
ssI5
(dp309
g4
F79085.0
sg5
F107485.0
ssI7
(dp310
g4
F59716.0
sg5
F117308.0
ssI9
(dp311
g4
F28237.0
sg5
F18626.0
ssI11
(dp312
g4
F23363.0
sg5
F26090.0
ssI13
(dp313
g4
F62059.0
sg5
F231031.0
ssI15
(dp314
g4
F66949.0
sg5
F66355.0
ssI17
(dp315
g4
F44911.0
sg5
F148009.0
ssI19
(dp316
g4
F38565.0
sg5
F28797.0
ssI21
(dp317
g4
F42604.0
sg5
F93721.0
ssI23
(dp318
g4
F108981.0
sg5
F164887.0
ssI25
(dp319
g4
F151184.0
sg5
F121004.0
ssI27
(dp320
g4
F125376.0
sg5
F114437.0
ssI29
(dp321
g4
F170103.0
sg5
F81845.0
ssI31
(dp322
g4
F71488.0
sg5
F112608.0
ssI33
(dp323
g4
F16256.0
sg5
F11766.0
ssI35
(dp324
g4
F64640.0
sg5
F83839.0
ssI37
(dp325
g4
F46216.0
sg5
F23771.0
ssI39
(dp326
g4
F62437.0
sg5
F132590.0
ssI41
(dp327
g4
F29393.0
sg5
F16991.0
sssS'NM'
p328
(dp329
I0
(dp330
g4
F339089.0
sg5
F431742.0
ssI1
(dp331
g4
F93874.0
sg5
F141960.0
ssI3
(dp332
g4
F1453.0
sg5
F426.0
ssI5
(dp333
g4
F12869.0
sg5
F5530.0
ssI6
(dp334
g4
F3179.0
sg5
F3721.0
ssI7
(dp335
g4
F2569.0
sg5
F2118.0
ssI9
(dp336
g4
F7560.0
sg5
F2776.0
ssI11
(dp337
g4
F617.0
sg5
F192.0
ssI13
(dp338
g4
F25095.0
sg5
F37543.0
ssI15
(dp339
g4
F13124.0
sg5
F5008.0
ssI17
(dp340
g4
F5251.0
sg5
F6226.0
ssI19
(dp341
g4
F591.0
sg5
F962.0
ssI21
(dp342
g4
F311.0
sg5
F156.0
ssI23
(dp343
g4
F906.0
sg5
F780.0
ssI25
(dp344
g4
F12306.0
sg5
F3877.0
ssI27
(dp345
g4
F5889.0
sg5
F2329.0
ssI28
(dp346
g4
F3329.0
sg5
F5443.0
ssI29
(dp347
g4
F3478.0
sg5
F3195.0
ssI31
(dp348
g4
F4893.0
sg5
F13162.0
ssI33
(dp349
g4
F662.0
sg5
F1533.0
ssI35
(dp350
g4
F11756.0
sg5
F6033.0
ssI37
(dp351
g4
F2208.0
sg5
F1016.0
ssI39
(dp352
g4
F3583.0
sg5
F9534.0
ssI41
(dp353
g4
F3865.0
sg5
F1445.0
ssI43
(dp354
g4
F25748.0
sg5
F27405.0
ssI45
(dp355
g4
F27879.0
sg5
F12826.0
ssI47
(dp356
g4
F2302.0
sg5
F7249.0
ssI49
(dp357
g4
F14198.0
sg5
F49956.0
ssI51
(dp358
g4
F2998.0
sg5
F1600.0
ssI53
(dp359
g4
F2592.0
sg5
F3275.0
ssI55
(dp360
g4
F2706.0
sg5
F10550.0
ssI57
(dp361
g4
F3695.0
sg5
F1770.0
ssI59
(dp362
g4
F1214.0
sg5
F318.0
ssI61
(dp363
g4
F13175.0
sg5
F10810.0
sssS'TX'
p364
(dp365
I0
(dp366
g4
F4638344.0
sg5
F3131706.0
ssI1
(dp367
g4
F13165.0
sg5
F3358.0
ssI3
(dp368
g4
F3925.0
sg5
F836.0
ssI5
(dp369
g4
F21666.0
sg5
F7538.0
ssI7
(dp370
g4
F7730.0
sg5
F2458.0
ssI9
(dp371
g4
F3785.0
sg5
F394.0
ssI11
(dp372
g4
F924.0
sg5
F70.0
ssI13
(dp373
g4
F8598.0
sg5
F4635.0
ssI15
(dp374
g4
F9637.0
sg5
F2319.0
ssI17
(dp375
g4
F1343.0
sg5
F397.0
ssI19
(dp376
g4
F8159.0
sg5
F1726.0
ssI21
(dp377
g4
F16314.0
sg5
F10555.0
ssI23
(dp378
g4
F1267.0
sg5
F191.0
ssI25
(dp379
g4
F4743.0
sg5
F3443.0
ssI27
(dp380
g4
F51780.0
sg5
F37608.0
ssI29
(dp381
g4
F240161.0
sg5
F319191.0
ssI31
(dp382
g4
F4212.0
sg5
F1244.0
ssI33
(dp383
g4
F330.0
sg5
F31.0
ssI35
(dp384
g4
F6325.0
sg5
F1277.0
ssI37
(dp385
g4
F24913.0
sg5
F8831.0
ssI39
(dp386
g4
F72653.0
sg5
F43075.0
ssI41
(dp387
g4
F38662.0
sg5
F23041.0
ssI43
(dp388
g4
F2073.0
sg5
F1869.0
ssI45
(dp389
g4
F625.0
sg5
F91.0
ssI47
(dp390
g4
F613.0
sg5
F1937.0
ssI49
(dp391
g4
F12010.0
sg5
F1621.0
ssI51
(dp392
g4
F5316.0
sg5
F1491.0
ssI53
(dp393
g4
F14595.0
sg5
F3785.0
ssI55
(dp394
g4
F6516.0
sg5
F4663.0
ssI57
(dp395
g4
F4638.0
sg5
F2118.0
ssI59
(dp396
g4
F4858.0
sg5
F568.0
ssI61
(dp397
g4
F29432.0
sg5
F59319.0
ssI63
(dp398
g4
F3201.0
sg5
F1260.0
ssI65
(dp399
g4
F2617.0
sg5
F249.0
ssI67
(dp400
g4
F9182.0
sg5
F2250.0
ssI69
(dp401
g4
F1413.0
sg5
F526.0
ssI71
(dp402
g4
F13278.0
sg5
F2939.0
ssI73
(dp403
g4
F12896.0
sg5
F3466.0
ssI75
(dp404
g4
F1802.0
sg5
F253.0
ssI77
(dp405
g4
F4376.0
sg5
F536.0
ssI79
(dp406
g4
F679.0
sg5
F190.0
ssI81
(dp407
g4
F1265.0
sg5
F140.0
ssI83
(dp408
g4
F3177.0
sg5
F387.0
ssI85
(dp409
g4
F200395.0
sg5
F139837.0
ssI87
(dp410
g4
F983.0
sg5
F145.0
ssI89
(dp411
g4
F6323.0
sg5
F1977.0
ssI91
(dp412
g4
F44996.0
sg5
F14166.0
ssI93
(dp413
g4
F4300.0
sg5
F788.0
ssI95
(dp414
g4
F885.0
sg5
F148.0
ssI97
(dp415
g4
F13174.0
sg5
F2345.0
ssI99
(dp416
g4
F12212.0
sg5
F5057.0
ssI101
(dp417
g4
F486.0
sg5
F84.0
ssI103
(dp418
g4
F1047.0
sg5
F299.0
ssI105
(dp419
g4
F980.0
sg5
F372.0
ssI107
(dp420
g4
F1180.0
sg5
F468.0
ssI109
(dp421
g4
F280.0
sg5
F454.0
ssI111
(dp422
g4
F1258.0
sg5
F222.0
ssI113
(dp423
g4
F261865.0
sg5
F458845.0
ssI115
(dp424
g4
F2636.0
sg5
F835.0
ssI117
(dp425
g4
F2911.0
sg5
F1185.0
ssI119
(dp426
g4
F1836.0
sg5
F400.0
ssI121
(dp427
g4
F169175.0
sg5
F110000.0
ssI123
(dp428
g4
F5510.0
sg5
F1161.0
ssI125
(dp429
g4
F755.0
sg5
F128.0
ssI127
(dp430
g4
F974.0
sg5
F2173.0
ssI129
(dp431
g4
F1225.0
sg5
F190.0
ssI131
(dp432
g4
F1316.0
sg5
F2783.0
ssI133
(dp433
g4
F6008.0
sg5
F776.0
ssI135
(dp434
g4
F24976.0
sg5
F10225.0
ssI137
(dp435
g4
F741.0
sg5
F302.0
ssI139
(dp436
g4
F44807.0
sg5
F16197.0
ssI141
(dp437
g4
F54567.0
sg5
F145509.0
ssI143
(dp438
g4
F11205.0
sg5
F2159.0
ssI145
(dp439
g4
F3438.0
sg5
F1682.0
ssI147
(dp440
g4
F9536.0
sg5
F2123.0
ssI149
(dp441
g4
F8648.0
sg5
F2127.0
ssI151
(dp442
g4
F1265.0
sg5
F403.0
ssI153
(dp443
g4
F1473.0
sg5
F435.0
ssI155
(dp444
g4
F383.0
sg5
F113.0
ssI157
(dp445
g4
F117212.0
sg5
F134475.0
ssI159
(dp446
g4
F3583.0
sg5
F665.0
ssI161
(dp447
g4
F5995.0
sg5
F1461.0
ssI163
(dp448
g4
F1232.0
sg5
F1401.0
ssI165
(dp449
g4
F3907.0
sg5
F597.0
ssI167
(dp450
g4
F73566.0
sg5
F45503.0
ssI169
(dp451
g4
F1223.0
sg5
F224.0
ssI171
(dp452
g4
F10445.0
sg5
F2286.0
ssI173
(dp453
g4
F553.0
sg5
F34.0
ssI175
(dp454
g4
F2618.0
sg5
F973.0
ssI177
(dp455
g4
F4580.0
sg5
F1567.0
ssI179
(dp456
g4
F6495.0
sg5
F699.0
ssI181
(dp457
g4
F35274.0
sg5
F10276.0
ssI183
(dp458
g4
F28693.0
sg5
F11623.0
ssI185
(dp459
g4
F7065.0
sg5
F2194.0
ssI187
(dp460
g4
F36495.0
sg5
F18308.0
ssI189
(dp461
g4
F6347.0
sg5
F2090.0
ssI191
(dp462
g4
F891.0
sg5
F164.0
ssI193
(dp463
g4
F3056.0
sg5
F479.0
ssI195
(dp464
g4
F1730.0
sg5
F171.0
ssI197
(dp465
g4
F1207.0
sg5
F249.0
ssI199
(dp466
g4
F19600.0
sg5
F2779.0
ssI201
(dp467
g4
F544960.0
sg5
F706471.0
ssI203
(dp468
g4
F18712.0
sg5
F7130.0
ssI205
(dp469
g4
F1727.0
sg5
F172.0
ssI207
(dp470
g4
F1403.0
sg5
F314.0
ssI209
(dp471
g4
F33730.0
sg5
F33117.0
ssI211
(dp472
g4
F1460.0
sg5
F181.0
ssI213
(dp473
g4
F23574.0
sg5
F5649.0
ssI215
(dp474
g4
F48608.0
sg5
F118739.0
ssI217
(dp475
g4
F10075.0
sg5
F2535.0
ssI219
(dp476
g4
F5793.0
sg5
F1257.0
ssI221
(dp477
g4
F21367.0
sg5
F4001.0
ssI223
(dp478
g4
F10704.0
sg5
F2508.0
ssI225
(dp479
g4
F6205.0
sg5
F1978.0
ssI227
(dp480
g4
F6635.0
sg5
F1768.0
ssI229
(dp481
g4
F503.0
sg5
F324.0
ssI231
(dp482
g4
F23866.0
sg5
F6301.0
ssI233
(dp483
g4
F7039.0
sg5
F854.0
ssI235
(dp484
g4
F660.0
sg5
F90.0
ssI237
(dp485
g4
F2973.0
sg5
F314.0
ssI239
(dp486
g4
F4266.0
sg5
F904.0
ssI241
(dp487
g4
F10578.0
sg5
F2582.0
ssI243
(dp488
g4
F694.0
sg5
F422.0
ssI245
(dp489
g4
F42828.0
sg5
F42404.0
ssI247
(dp490
g4
F430.0
sg5
F1635.0
ssI249
(dp491
g4
F5411.0
sg5
F6688.0
ssI251
(dp492
g4
F44370.0
sg5
F10976.0
ssI253
(dp493
g4
F4815.0
sg5
F935.0
ssI255
(dp494
g4
F2959.0
sg5
F1144.0
ssI257
(dp495
g4
F29537.0
sg5
F10265.0
ssI259
(dp496
g4
F15663.0
sg5
F3633.0
ssI261
(dp497
g4
F84.0
sg5
F99.0
ssI263
(dp498
g4
F360.0
sg5
F59.0
ssI265
(dp499
g4
F17658.0
sg5
F4665.0
ssI267
(dp500
g4
F1697.0
sg5
F206.0
ssI269
(dp501
g4
F149.0
sg5
F5.0
ssI271
(dp502
g4
F936.0
sg5
F457.0
ssI273
(dp503
g4
F4364.0
sg5
F4713.0
ssI275
(dp504
g4
F1078.0
sg5
F247.0
ssI277
(dp505
g4
F14546.0
sg5
F3579.0
ssI279
(dp506
g4
F3040.0
sg5
F770.0
ssI281
(dp507
g4
F6371.0
sg5
F1479.0
ssI283
(dp508
g4
F870.0
sg5
F1125.0
ssI285
(dp509
g4
F7339.0
sg5
F1170.0
ssI287
(dp510
g4
F4996.0
sg5
F1372.0
ssI289
(dp511
g4
F6391.0
sg5
F909.0
ssI291
(dp512
g4
F18856.0
sg5
F4851.0
ssI293
(dp513
g4
F5747.0
sg5
F1748.0
ssI295
(dp514
g4
F1159.0
sg5
F135.0
ssI297
(dp515
g4
F3450.0
sg5
F739.0
ssI299
(dp516
g4
F8283.0
sg5
F1825.0
ssI301
(dp517
g4
F57.0
sg5
F4.0
ssI303
(dp518
g4
F65566.0
sg5
F27956.0
ssI305
(dp519
g4
F1546.0
sg5
F403.0
ssI307
(dp520
g4
F2546.0
sg5
F480.0
ssI309
(dp521
g4
F48245.0
sg5
F27046.0
ssI311
(dp522
g4
F454.0
sg5
F40.0
ssI313
(dp523
g4
F3349.0
sg5
F881.0
ssI315
(dp524
g4
F2968.0
sg5
F1156.0
ssI317
(dp525
g4
F1453.0
sg5
F266.0
ssI319
(dp526
g4
F1656.0
sg5
F353.0
ssI321
(dp527
g4
F8147.0
sg5
F3357.0
ssI323
(dp528
g4
F2816.0
sg5
F10397.0
ssI325
(dp529
g4
F12054.0
sg5
F4624.0
ssI327
(dp530
g4
F681.0
sg5
F153.0
ssI329
(dp531
g4
F36896.0
sg5
F9993.0
ssI331
(dp532
g4
F6340.0
sg5
F2042.0
ssI333
(dp533
g4
F1949.0
sg5
F242.0
ssI335
(dp534
g4
F1780.0
sg5
F353.0
ssI337
(dp535
g4
F7526.0
sg5
F885.0
ssI339
(dp536
g4
F150188.0
sg5
F45744.0
ssI341
(dp537
g4
F3974.0
sg5
F1096.0
ssI343
(dp538
g4
F3443.0
sg5
F1425.0
ssI345
(dp539
g4
F571.0
sg5
F40.0
ssI347
(dp540
g4
F14751.0
sg5
F6822.0
ssI349
(dp541
g4
F11984.0
sg5
F3998.0
ssI351
(dp542
g4
F2961.0
sg5
F978.0
ssI353
(dp543
g4
F3551.0
sg5
F1029.0
ssI355
(dp544
g4
F50704.0
sg5
F49102.0
ssI357
(dp545
g4
F2628.0
sg5
F274.0
ssI359
(dp546
g4
F850.0
sg5
F78.0
ssI361
(dp547
g4
F25385.0
sg5
F5716.0
ssI363
(dp548
g4
F8222.0
sg5
F1700.0
ssI365
(dp549
g4
F8445.0
sg5
F1835.0
ssI367
(dp550
g4
F46433.0
sg5
F8329.0
ssI369
(dp551
g4
F1911.0
sg5
F848.0
ssI371
(dp552
g4
F2463.0
sg5
F1551.0
ssI373
(dp553
g4
F26587.0
sg5
F7123.0
ssI375
(dp554
g4
F19499.0
sg5
F7620.0
ssI377
(dp555
g4
F652.0
sg5
F1458.0
ssI379
(dp556
g4
F3919.0
sg5
F619.0
ssI381
(dp557
g4
F43379.0
sg5
F8340.0
ssI383
(dp558
g4
F709.0
sg5
F167.0
ssI385
(dp559
g4
F1382.0
sg5
F262.0
ssI387
(dp560
g4
F3924.0
sg5
F1148.0
ssI389
(dp561
g4
F1417.0
sg5
F1659.0
ssI391
(dp562
g4
F1830.0
sg5
F1034.0
ssI393
(dp563
g4
F524.0
sg5
F20.0
ssI395
(dp564
g4
F4665.0
sg5
F2203.0
ssI397
(dp565
g4
F28396.0
sg5
F9633.0
ssI399
(dp566
g4
F3241.0
sg5
F452.0
ssI401
(dp567
g4
F14675.0
sg5
F3935.0
ssI403
(dp568
g4
F3992.0
sg5
F614.0
ssI405
(dp569
g4
F2620.0
sg5
F907.0
ssI407
(dp570
g4
F8050.0
sg5
F2034.0
ssI409
(dp571
g4
F13004.0
sg5
F7825.0
ssI411
(dp572
g4
F2025.0
sg5
F293.0
ssI413
(dp573
g4
F819.0
sg5
F209.0
ssI415
(dp574
g4
F4403.0
sg5
F733.0
ssI417
(dp575
g4
F1378.0
sg5
F103.0
ssI419
(dp576
g4
F7171.0
sg5
F1757.0
ssI421
(dp577
g4
F807.0
sg5
F96.0
ssI423
(dp578
g4
F58631.0
sg5
F22128.0
ssI425
(dp579
g4
F3206.0
sg5
F540.0
ssI427
(dp580
g4
F2218.0
sg5
F9246.0
ssI429
(dp581
g4
F3033.0
sg5
F348.0
ssI431
(dp582
g4
F549.0
sg5
F70.0
ssI433
(dp583
g4
F555.0
sg5
F135.0
ssI435
(dp584
g4
F1075.0
sg5
F313.0
ssI437
(dp585
g4
F1671.0
sg5
F462.0
ssI439
(dp586
g4
F345683.0
sg5
F288001.0
ssI441
(dp587
g4
F33172.0
sg5
F10047.0
ssI443
(dp588
g4
F287.0
sg5
F140.0
ssI445
(dp589
g4
F1295.0
sg5
F424.0
ssI447
(dp590
g4
F715.0
sg5
F84.0
ssI449
(dp591
g4
F6405.0
sg5
F2538.0
ssI451
(dp592
g4
F27376.0
sg5
F9117.0
ssI453
(dp593
g4
F126750.0
sg5
F306475.0
ssI455
(dp594
g4
F4737.0
sg5
F1154.0
ssI457
(dp595
g4
F6601.0
sg5
F1243.0
ssI459
(dp596
g4
F13198.0
sg5
F2378.0
ssI461
(dp597
g4
F961.0
sg5
F284.0
ssI463
(dp598
g4
F4828.0
sg5
F3863.0
ssI465
(dp599
g4
F5856.0
sg5
F6920.0
ssI467
(dp600
g4
F18436.0
sg5
F2792.0
ssI469
(dp601
g4
F21253.0
sg5
F8843.0
ssI471
(dp602
g4
F12878.0
sg5
F6085.0
ssI473
(dp603
g4
F10525.0
sg5
F5744.0
ssI475
(dp604
g4
F2541.0
sg5
F780.0
ssI477
(dp605
g4
F10944.0
sg5
F3381.0
ssI479
(dp606
g4
F8471.0
sg5
F27404.0
ssI481
(dp607
g4
F10149.0
sg5
F4238.0
ssI483
(dp608
g4
F2087.0
sg5
F194.0
ssI485
(dp609
g4
F27609.0
sg5
F8752.0
ssI487
(dp610
g4
F3166.0
sg5
F807.0
ssI489
(dp611
g4
F1541.0
sg5
F3416.0
ssI491
(dp612
g4
F104029.0
sg5
F84252.0
ssI493
(dp613
g4
F13991.0
sg5
F4790.0
ssI495
(dp614
g4
F1403.0
sg5
F420.0
ssI497
(dp615
g4
F20655.0
sg5
F3412.0
ssI499
(dp616
g4
F15681.0
sg5
F2624.0
ssI501
(dp617
g4
F1797.0
sg5
F426.0
ssI503
(dp618
g4
F6587.0
sg5
F873.0
ssI505
(dp619
g4
F1028.0
sg5
F2056.0
ssI507
(dp620
g4
F692.0
sg5
F2633.0
sssS'LA'
p621
(dp622
I0
(dp623
g4
F1015075.0
sg5
F558663.0
ssI1
(dp624
g4
F33340.0
sg5
F7732.0
ssI3
(dp625
g4
F9685.0
sg5
F3087.0
ssI5
(dp626
g4
F43130.0
sg5
F23662.0
ssI7
(dp627
g4
F7960.0
sg5
F5672.0
ssI9
(dp628
g4
F13268.0
sg5
F7452.0
ssI11
(dp629
g4
F17208.0
sg5
F3472.0
ssI13
(dp630
g4
F3926.0
sg5
F5476.0
ssI15
(dp631
g4
F37199.0
sg5
F21337.0
ssI17
(dp632
g4
F52138.0
sg5
F87262.0
ssI19
(dp633
g4
F90709.0
sg5
F36783.0
ssI21
(dp634
g4
F4072.0
sg5
F1256.0
ssI23
(dp635
g4
F5374.0
sg5
F455.0
ssI25
(dp636
g4
F3753.0
sg5
F2016.0
ssI27
(dp637
g4
F3759.0
sg5
F4486.0
ssI29
(dp638
g4
F6109.0
sg5
F4814.0
ssI31
(dp639
g4
F8489.0
sg5
F8949.0
ssI33
(dp640
g4
F105595.0
sg5
F150134.0
ssI35
(dp641
g4
F1361.0
sg5
F2705.0
ssI37
(dp642
g4
F6251.0
sg5
F6108.0
ssI39
(dp643
g4
F14922.0
sg5
F5618.0
ssI41
(dp644
g4
F7150.0
sg5
F3778.0
ssI43
(dp645
g4
F8034.0
sg5
F1792.0
ssI45
(dp646
g4
F30538.0
sg5
F14307.0
ssI47
(dp647
g4
F8563.0
sg5
F11679.0
ssI49
(dp648
g4
F5546.0
sg5
F3404.0
ssI51
(dp649
g4
F119810.0
sg5
F98471.0
ssI53
(dp650
g4
F16981.0
sg5
F4412.0
ssI55
(dp651
g4
F113205.0
sg5
F45628.0
ssI57
(dp652
g4
F36964.0
sg5
F11575.0
ssI59
(dp653
g4
F6381.0
sg5
F957.0
ssI61
(dp654
g4
F11931.0
sg5
F10760.0
ssI63
(dp655
g4
F55383.0
sg5
F10513.0
ssI65
(dp656
g4
F2216.0
sg5
F3942.0
ssI67
(dp657
g4
F6956.0
sg5
F7631.0
ssI69
(dp658
g4
F9546.0
sg5
F12048.0
ssI71
(dp659
g4
F34057.0
sg5
F183597.0
ssI73
(dp660
g4
F44977.0
sg5
F37300.0
ssI75
(dp661
g4
F7910.0
sg5
F4169.0
ssI77
(dp662
g4
F7922.0
sg5
F6723.0
ssI79
(dp663
g4
F42008.0
sg5
F25794.0
ssI81
(dp664
g4
F2500.0
sg5
F3520.0
ssI83
(dp665
g4
F6968.0
sg5
F4865.0
ssI85
(dp666
g4
F8357.0
sg5
F2996.0
ssI87
(dp667
g4
F11536.0
sg5
F6776.0
ssI89
(dp668
g4
F19593.0
sg5
F11244.0
ssI91
(dp669
g4
F2783.0
sg5
F4438.0
ssI93
(dp670
g4
F6317.0
sg5
F9143.0
ssI95
(dp671
g4
F8768.0
sg5
F16764.0
ssI97
(dp672
g4
F34829.0
sg5
F24224.0
ssI99
(dp673
g4
F25747.0
sg5
F11009.0
ssI101
(dp674
g4
F19547.0
sg5
F10787.0
ssI103
(dp675
g4
F105502.0
sg5
F36616.0
ssI105
(dp676
g4
F38569.0
sg5
F23259.0
ssI107
(dp677
g4
F1302.0
sg5
F1946.0
ssI109
(dp678
g4
F37054.0
sg5
F13968.0
ssI111
(dp679
g4
F8499.0
sg5
F4403.0
ssI113
(dp680
g4
F31181.0
sg5
F6367.0
ssI115
(dp681
g4
F15094.0
sg5
F3969.0
ssI117
(dp682
g4
F13775.0
sg5
F7981.0
ssI119
(dp683
g4
F11936.0
sg5
F11381.0
ssI121
(dp684
g4
F8218.0
sg5
F7787.0
ssI123
(dp685
g4
F4258.0
sg5
F1175.0
ssI125
(dp686
g4
F4044.0
sg5
F3143.0
ssI127
(dp687
g4
F5045.0
sg5
F2500.0
sssS'NC'
p688
(dp689
I0
(dp690
g4
F7070846.0
sg5
F6500978.0
ssI1
(dp691
g4
F113963.0
sg5
F89047.0
ssI3
(dp692
g4
F40224.0
sg5
F12253.0
ssI5
(dp693
g4
F11045.0
sg5
F4260.0
ssI7
(dp694
g4
F13323.0
sg5
F17279.0
ssI9
(dp695
g4
F27336.0
sg5
F11300.0
ssI11
(dp696
g4
F18184.0
sg5
F5306.0
ssI13
(dp697
g4
F43267.0
sg5
F25858.0
ssI15
(dp698
g4
F10660.0
sg5
F17052.0
ssI17
(dp699
g4
F24986.0
sg5
F21212.0
ssI19
(dp700
g4
F124767.0
sg5
F70453.0
ssI21
(dp701
g4
F162538.0
sg5
F231690.0
ssI23
(dp702
g4
F74425.0
sg5
F35117.0
ssI25
(dp703
g4
F158311.0
sg5
F106293.0
ssI27
(dp704
g4
F76991.0
sg5
F26933.0
ssI29
(dp705
g4
F10304.0
sg5
F3883.0
ssI31
(dp706
g4
F77818.0
sg5
F29907.0
ssI33
(dp707
g4
F16993.0
sg5
F13785.0
ssI35
(dp708
g4
F141061.0
sg5
F65218.0
ssI37
(dp709
g4
F51909.0
sg5
F63351.0
ssI39
(dp710
g4
F30312.0
sg5
F9611.0
ssI41
(dp711
g4
F12022.0
sg5
F8790.0
ssI43
(dp712
g4
F12533.0
sg5
F4494.0
ssI45
(dp713
g4
F83259.0
sg5
F45904.0
ssI47
(dp714
g4
F41389.0
sg5
F27008.0
ssI49
(dp715
g4
F82887.0
sg5
F51962.0
ssI51
(dp716
g4
F153885.0
sg5
F208632.0
ssI53
(dp717
g4
F26668.0
sg5
F8966.0
ssI55
(dp718
g4
F33046.0
sg5
F22116.0
ssI57
(dp719
g4
F154471.0
sg5
F55441.0
ssI59
(dp720
g4
F45580.0
sg5
F16701.0
ssI61
(dp721
g4
F36279.0
sg5
F24230.0
ssI63
(dp722
g4
F91151.0
sg5
F354132.0
ssI65
(dp723
g4
F24877.0
sg5
F48026.0
ssI67
(dp724
g4
F227232.0
sg5
F277987.0
ssI69
(dp725
g4
F48402.0
sg5
F39413.0
ssI71
(dp726
g4
F181148.0
sg5
F94874.0
ssI73
(dp727
g4
F8505.0
sg5
F6999.0
ssI75
(dp728
g4
F8919.0
sg5
F2762.0
ssI77
(dp729
g4
F40226.0
sg5
F38945.0
ssI79
(dp730
g4
F12987.0
sg5
F10627.0
ssI81
(dp731
g4
F294024.0
sg5
F445050.0
ssI83
(dp732
g4
F26631.0
sg5
F47007.0
ssI85
(dp733
g4
F81051.0
sg5
F50370.0
ssI87
(dp734
g4
F53208.0
sg5
F34101.0
ssI89
(dp735
g4
F104101.0
sg5
F61595.0
ssI91
(dp736
g4
F9406.0
sg5
F20234.0
ssI93
(dp737
g4
F22973.0
sg5
F28621.0
ssI95
(dp738
g4
F3754.0
sg5
F2893.0
ssI97
(dp739
g4
F157024.0
sg5
F76598.0
ssI99
(dp740
g4
F27824.0
sg5
F24467.0
ssI101
(dp741
g4
F160571.0
sg5
F87193.0
ssI103
(dp742
g4
F8787.0
sg5
F6042.0
ssI105
(dp743
g4
F40002.0
sg5
F31963.0
ssI107
(dp744
g4
F40223.0
sg5
F34823.0
ssI109
(dp745
g4
F83789.0
sg5
F30850.0
ssI111
(dp746
g4
F41150.0
sg5
F15520.0
ssI113
(dp747
g4
F33935.0
sg5
F16413.0
ssI115
(dp748
g4
F18990.0
sg5
F12903.0
ssI117
(dp749
g4
F17672.0
sg5
F17209.0
ssI119
(dp750
g4
F485314.0
sg5
F862164.0
ssI121
(dp751
g4
F17892.0
sg5
F5274.0
ssI123
(dp752
g4
F20461.0
sg5
F12879.0
ssI125
(dp753
g4
F90236.0
sg5
F49635.0
ssI127
(dp754
g4
F68730.0
sg5
F70331.0
ssI129
(dp755
g4
F160665.0
sg5
F154050.0
ssI131
(dp756
g4
F10633.0
sg5
F18212.0
ssI133
(dp757
g4
F107745.0
sg5
F51437.0
ssI135
(dp758
g4
F58965.0
sg5
F176744.0
ssI137
(dp759
g4
F12620.0
sg5
F7226.0
ssI139
(dp760
g4
F24042.0
sg5
F25506.0
ssI141
(dp761
g4
F50523.0
sg5
F27840.0
ssI143
(dp762
g4
F12394.0
sg5
F6871.0
ssI145
(dp763
g4
F32785.0
sg5
F23825.0
ssI147
(dp764
g4
F107978.0
sg5
F121303.0
ssI149
(dp765
g4
F19272.0
sg5
F11944.0
ssI151
(dp766
g4
F143060.0
sg5
F42396.0
ssI153
(dp767
g4
F29445.0
sg5
F25241.0
ssI155
(dp768
g4
F60527.0
sg5
F54747.0
ssI157
(dp769
g4
F76755.0
sg5
F44225.0
ssI159
(dp770
g4
F123624.0
sg5
F59632.0
ssI161
(dp771
g4
F61415.0
sg5
F25061.0
ssI163
(dp772
g4
F44361.0
sg5
F31209.0
ssI165
(dp773
g4
F18334.0
sg5
F21715.0
ssI167
(dp774
g4
F63339.0
sg5
F22242.0
ssI169
(dp775
g4
F49138.0
sg5
F15536.0
ssI171
(dp776
g4
F68030.0
sg5
F24452.0
ssI173
(dp777
g4
F9950.0
sg5
F7151.0
ssI175
(dp778
g4
F30069.0
sg5
F20783.0
ssI177
(dp779
g4
F2881.0
sg5
F2079.0
ssI179
(dp780
g4
F199977.0
sg5
F101520.0
ssI181
(dp781
g4
F21983.0
sg5
F36370.0
ssI183
(dp782
g4
F605345.0
sg5
F895562.0
ssI185
(dp783
g4
F9960.0
sg5
F19995.0
ssI187
(dp784
g4
F7752.0
sg5
F10228.0
ssI189
(dp785
g4
F40497.0
sg5
F43040.0
ssI191
(dp786
g4
F82334.0
sg5
F64188.0
ssI193
(dp787
g4
F68447.0
sg5
F21532.0
ssI195
(dp788
g4
F51976.0
sg5
F59150.0
ssI197
(dp789
g4
F40593.0
sg5
F10281.0
ssI199
(dp790
g4
F18133.0
sg5
F10650.0
sssS'ND'
p791
(dp792
I0
(dp793
g4
F760276.0
sg5
F203854.0
ssI1
(dp794
g4
F3012.0
sg5
F465.0
ssI3
(dp795
g4
F11661.0
sg5
F3349.0
ssI5
(dp796
g4
F3370.0
sg5
F2233.0
ssI7
(dp797
g4
F1563.0
sg5
F147.0
ssI9
(dp798
g4
F8225.0
sg5
F1708.0
ssI11
(dp799
g4
F4623.0
sg5
F541.0
ssI13
(dp800
g4
F2722.0
sg5
F304.0
ssI15
(dp801
g4
F109038.0
sg5
F25574.0
ssI17
(dp802
g4
F153691.0
sg5
F68034.0
ssI19
(dp803
g4
F4657.0
sg5
F1140.0
ssI21
(dp804
g4
F5593.0
sg5
F1288.0
ssI23
(dp805
g4
F2823.0
sg5
F610.0
ssI25
(dp806
g4
F5488.0
sg5
F902.0
ssI27
(dp807
g4
F2466.0
sg5
F1060.0
ssI29
(dp808
g4
F5172.0
sg5
F536.0
ssI31
(dp809
g4
F4115.0
sg5
F802.0
ssI33
(dp810
g4
F2438.0
sg5
F286.0
ssI35
(dp811
g4
F57592.0
sg5
F25904.0
ssI37
(dp812
g4
F3539.0
sg5
F449.0
ssI39
(dp813
g4
F2854.0
sg5
F770.0
ssI41
(dp814
g4
F3260.0
sg5
F399.0
ssI43
(dp815
g4
F3485.0
sg5
F474.0
ssI45
(dp816
g4
F5020.0
sg5
F1158.0
ssI47
(dp817
g4
F2774.0
sg5
F279.0
ssI49
(dp818
g4
F6614.0
sg5
F1176.0
ssI51
(dp819
g4
F3662.0
sg5
F516.0
ssI53
(dp820
g4
F11435.0
sg5
F1749.0
ssI55
(dp821
g4
F12375.0
sg5
F2705.0
ssI57
(dp822
g4
F11615.0
sg5
F1633.0
ssI59
(dp823
g4
F36838.0
sg5
F7585.0
ssI61
(dp824
g4
F8227.0
sg5
F3215.0
ssI63
(dp825
g4
F3552.0
sg5
F1358.0
ssI65
(dp826
g4
F2624.0
sg5
F298.0
ssI67
(dp827
g4
F7394.0
sg5
F1647.0
ssI69
(dp828
g4
F4881.0
sg5
F1049.0
ssI71
(dp829
g4
F11509.0
sg5
F3485.0
ssI73
(dp830
g4
F4717.0
sg5
F1843.0
ssI75
(dp831
g4
F3157.0
sg5
F464.0
ssI77
(dp832
g4
F16682.0
sg5
F4513.0
ssI79
(dp833
g4
F4234.0
sg5
F6178.0
ssI81
(dp834
g4
F4062.0
sg5
F1608.0
ssI83
(dp835
g4
F2011.0
sg5
F239.0
ssI85
(dp836
g4
F1112.0
sg5
F2075.0
ssI87
(dp837
g4
F1121.0
sg5
F108.0
ssI89
(dp838
g4
F30619.0
sg5
F4143.0
ssI91
(dp839
g4
F2088.0
sg5
F796.0
ssI93
(dp840
g4
F23014.0
sg5
F5369.0
ssI95
(dp841
g4
F2525.0
sg5
F786.0
ssI97
(dp842
g4
F8308.0
sg5
F2779.0
ssI99
(dp843
g4
F10385.0
sg5
F2700.0
ssI101
(dp844
g4
F62273.0
sg5
F13416.0
ssI103
(dp845
g4
F5839.0
sg5
F1012.0
ssI105
(dp846
g4
F31110.0
sg5
F4337.0
sssS'NE'
p847
(dp848
I0
(dp849
g4
F321549.0
sg5
F210678.0
ssI1
(dp850
g4
F9205.0
sg5
F3272.0
ssI3
(dp851
g4
F2717.0
sg5
F381.0
ssI5
(dp852
g4
F237.0
sg5
F16.0
ssI7
(dp853
g4
F355.0
sg5
F18.0
ssI9
(dp854
g4
F273.0
sg5
F30.0
ssI11
(dp855
g4
F2299.0
sg5
F414.0
ssI13
(dp856
g4
F3550.0
sg5
F953.0
ssI15
(dp857
g4
F978.0
sg5
F128.0
ssI17
(dp858
g4
F1380.0
sg5
F153.0
ssI19
(dp859
g4
F14424.0
sg5
F4690.0
ssI21
(dp860
g4
F2360.0
sg5
F928.0
ssI23
(dp861
g4
F3068.0
sg5
F690.0
ssI25
(dp862
g4
F8388.0
sg5
F3461.0
ssI27
(dp863
g4
F3533.0
sg5
F572.0
ssI29
(dp864
g4
F1621.0
sg5
F171.0
ssI31
(dp865
g4
F2623.0
sg5
F317.0
ssI33
(dp866
g4
F3610.0
sg5
F702.0
ssI35
(dp867
g4
F2373.0
sg5
F470.0
ssI37
(dp868
g4
F2171.0
sg5
F857.0
ssI39
(dp869
g4
F3095.0
sg5
F712.0
ssI41
(dp870
g4
F4616.0
sg5
F635.0
ssI43
(dp871
g4
F4028.0
sg5
F2904.0
ssI45
(dp872
g4
F2559.0
sg5
F785.0
ssI47
(dp873
g4
F5935.0
sg5
F2116.0
ssI49
(dp874
g4
F809.0
sg5
F120.0
ssI51
(dp875
g4
F2041.0
sg5
F556.0
ssI53
(dp876
g4
F9736.0
sg5
F4451.0
ssI55
(dp877
g4
F102151.0
sg5
F105207.0
ssI57
(dp878
g4
F823.0
sg5
F89.0
ssI59
(dp879
g4
F2100.0
sg5
F610.0
ssI61
(dp880
g4
F1345.0
sg5
F250.0
ssI63
(dp881
g4
F1106.0
sg5
F161.0
ssI65
(dp882
g4
F1915.0
sg5
F304.0
ssI67
(dp883
g4
F6333.0
sg5
F2930.0
ssI69
(dp884
g4
F869.0
sg5
F153.0
ssI71
(dp885
g4
F819.0
sg5
F121.0
ssI73
(dp886
g4
F792.0
sg5
F165.0
ssI75
(dp887
g4
F367.0
sg5
F20.0
ssI77
(dp888
g4
F911.0
sg5
F210.0
ssI79
(dp889
g4
F14139.0
sg5
F6142.0
ssI81
(dp890
g4
F3763.0
sg5
F873.0
ssI83
(dp891
g4
F1302.0
sg5
F219.0
ssI85
(dp892
g4
F471.0
sg5
F30.0
ssI87
(dp893
g4
F1216.0
sg5
F158.0
ssI89
(dp894
g4
F4275.0
sg5
F522.0
ssI91
(dp895
g4
F355.0
sg5
F40.0
ssI93
(dp896
g4
F2284.0
sg5
F544.0
ssI95
(dp897
g4
F2387.0
sg5
F831.0
ssI97
(dp898
g4
F1348.0
sg5
F560.0
ssI99
(dp899
g4
F2519.0
sg5
F550.0
ssI101
(dp900
g4
F3203.0
sg5
F560.0
ssI103
(dp901
g4
F458.0
sg5
F39.0
ssI105
(dp902
g4
F1317.0
sg5
F227.0
ssI107
(dp903
g4
F3181.0
sg5
F715.0
ssI109
(dp904
g4
F60456.0
sg5
F60533.0
ssI111
(dp905
g4
F11992.0
sg5
F2878.0
ssI113
(dp906
g4
F400.0
sg5
F32.0
ssI115
(dp907
g4
F323.0
sg5
F48.0
ssI117
(dp908
g4
F257.0
sg5
F14.0
ssI119
(dp909
g4
F10518.0
sg5
F2663.0
ssI121
(dp910
g4
F2914.0
sg5
F601.0
ssI123
(dp911
g4
F1788.0
sg5
F282.0
ssI125
(dp912
g4
F1257.0
sg5
F280.0
ssI127
(dp913
g4
F2068.0
sg5
F765.0
ssI129
(dp914
g4
F1709.0
sg5
F348.0
ssI131
(dp915
g4
F4833.0
sg5
F2017.0
ssI133
(dp916
g4
F970.0
sg5
F279.0
ssI135
(dp917
g4
F1202.0
sg5
F160.0
ssI137
(dp918
g4
F3832.0
sg5
F571.0
ssI139
(dp919
g4
F3052.0
sg5
F382.0
ssI141
(dp920
g4
F10864.0
sg5
F2612.0
ssI143
(dp921
g4
F2019.0
sg5
F411.0
ssI145
(dp922
g4
F4212.0
sg5
F638.0
ssI147
(dp923
g4
F2684.0
sg5
F798.0
ssI149
(dp924
g4
F687.0
sg5
F70.0
ssI151
(dp925
g4
F2849.0
sg5
F1630.0
ssI153
(dp926
g4
F44649.0
sg5
F27704.0
ssI155
(dp927
g4
F7486.0
sg5
F2509.0
ssI157
(dp928
g4
F9952.0
sg5
F3151.0
ssI159
(dp929
g4
F5451.0
sg5
F1881.0
ssI161
(dp930
g4
F2192.0
sg5
F286.0
ssI163
(dp931
g4
F1143.0
sg5
F338.0
ssI165
(dp932
g4
F602.0
sg5
F77.0
ssI167
(dp933
g4
F2173.0
sg5
F417.0
ssI169
(dp934
g4
F1993.0
sg5
F490.0
ssI171
(dp935
g4
F344.0
sg5
F30.0
ssI173
(dp936
g4
F1013.0
sg5
F911.0
ssI175
(dp937
g4
F1770.0
sg5
F337.0
ssI177
(dp938
g4
F7374.0
sg5
F2606.0
ssI179
(dp939
g4
F2675.0
sg5
F828.0
ssI181
(dp940
g4
F1320.0
sg5
F306.0
ssI183
(dp941
g4
F377.0
sg5
F62.0
ssI185
(dp942
g4
F4686.0
sg5
F1181.0
sssS'TN'
p943
(dp944
I0
(dp945
g4
F1486011.0
sg5
F809521.0
ssI1
(dp946
g4
F19201.0
sg5
F9010.0
ssI3
(dp947
g4
F11455.0
sg5
F3384.0
ssI5
(dp948
g4
F4715.0
sg5
F1474.0
ssI7
(dp949
g4
F3621.0
sg5
F896.0
ssI9
(dp950
g4
F37385.0
sg5
F12085.0
ssI11
(dp951
g4
F29761.0
sg5
F7070.0
ssI13
(dp952
g4
F9860.0
sg5
F2248.0
ssI15
(dp953
g4
F4006.0
sg5
F1126.0
ssI17
(dp954
g4
F7731.0
sg5
F2323.0
ssI19
(dp955
g4
F16897.0
sg5
F3453.0
ssI21
(dp956
g4
F11295.0
sg5
F3877.0
ssI23
(dp957
g4
F3827.0
sg5
F902.0
ssI25
(dp958
g4
F8589.0
sg5
F1831.0
ssI27
(dp959
g4
F2140.0
sg5
F707.0
ssI29
(dp960
g4
F9791.0
sg5
F1980.0
ssI31
(dp961
g4
F14409.0
sg5
F4741.0
ssI33
(dp962
g4
F3977.0
sg5
F1302.0
ssI35
(dp963
g4
F20410.0
sg5
F5202.0
ssI37
(dp964
g4
F84365.0
sg5
F148473.0
ssI39
(dp965
g4
F3580.0
sg5
F894.0
ssI41
(dp966
g4
F5164.0
sg5
F1566.0
ssI43
(dp967
g4
F13213.0
sg5
F4718.0
ssI45
(dp968
g4
F10175.0
sg5
F2815.0
ssI47
(dp969
g4
F13046.0
sg5
F5865.0
ssI49
(dp970
g4
F6032.0
sg5
F1100.0
ssI51
(dp971
g4
F11526.0
sg5
F4372.0
ssI53
(dp972
g4
F13779.0
sg5
F5255.0
ssI55
(dp973
g4
F7964.0
sg5
F2915.0
ssI57
(dp974
g4
F6618.0
sg5
F1154.0
ssI59
(dp975
g4
F18538.0
sg5
F4211.0
ssI61
(dp976
g4
F3626.0
sg5
F998.0
ssI63
(dp977
g4
F15839.0
sg5
F4075.0
ssI65
(dp978
g4
F78661.0
sg5
F55260.0
ssI67
(dp979
g4
F1842.0
sg5
F322.0
ssI69
(dp980
g4
F2752.0
sg5
F2757.0
ssI71
(dp981
g4
F8012.0
sg5
F1622.0
ssI73
(dp982
g4
F16611.0
sg5
F3502.0
ssI75
(dp983
g4
F3010.0
sg5
F3704.0
ssI77
(dp984
g4
F8118.0
sg5
F1796.0
ssI79
(dp985
g4
F9483.0
sg5
F3061.0
ssI81
(dp986
g4
F5685.0
sg5
F1823.0
ssI83
(dp987
g4
F2180.0
sg5
F865.0
ssI85
(dp988
g4
F4928.0
sg5
F1967.0
ssI87
(dp989
g4
F3229.0
sg5
F1129.0
ssI89
(dp990
g4
F14760.0
sg5
F3490.0
ssI91
(dp991
g4
F5400.0
sg5
F988.0
ssI93
(dp992
g4
F105724.0
sg5
F62861.0
ssI95
(dp993
g4
F1357.0
sg5
F577.0
ssI97
(dp994
g4
F4884.0
sg5
F3656.0
ssI99
(dp995
g4
F12419.0
sg5
F2821.0
ssI101
(dp996
g4
F3579.0
sg5
F890.0
ssI103
(dp997
g4
F10375.0
sg5
F2550.0
ssI105
(dp998
g4
F17588.0
sg5
F4916.0
ssI107
(dp999
g4
F14673.0
sg5
F3507.0
ssI109
(dp1000
g4
F7839.0
sg5
F1847.0
ssI111
(dp1001
g4
F6260.0
sg5
F1071.0
ssI113
(dp1002
g4
F21321.0
sg5
F15438.0
ssI115
(dp1003
g4
F7680.0
sg5
F2829.0
ssI117
(dp1004
g4
F8167.0
sg5
F2848.0
ssI119
(dp1005
g4
F23781.0
sg5
F10026.0
ssI121
(dp1006
g4
F3337.0
sg5
F856.0
ssI123
(dp1007
g4
F13361.0
sg5
F3184.0
ssI125
(dp1008
g4
F32320.0
sg5
F21686.0
ssI127
(dp1009
g4
F2325.0
sg5
F496.0
ssI129
(dp1010
g4
F5429.0
sg5
F1053.0
ssI131
(dp1011
g4
F9525.0
sg5
F2425.0
ssI133
(dp1012
g4
F6055.0
sg5
F1943.0
ssI135
(dp1013
g4
F2167.0
sg5
F597.0
ssI137
(dp1014
g4
F2019.0
sg5
F536.0
ssI139
(dp1015
g4
F5097.0
sg5
F1252.0
ssI141
(dp1016
g4
F18981.0
sg5
F6847.0
ssI143
(dp1017
g4
F8650.0
sg5
F1942.0
ssI145
(dp1018
g4
F15863.0
sg5
F4833.0
ssI147
(dp1019
g4
F19393.0
sg5
F6634.0
ssI149
(dp1020
g4
F64428.0
sg5
F36627.0
ssI151
(dp1021
g4
F6044.0
sg5
F934.0
ssI153
(dp1022
g4
F4434.0
sg5
F1051.0
ssI155
(dp1023
g4
F28610.0
sg5
F6293.0
ssI157
(dp1024
g4
F114948.0
sg5
F206640.0
ssI159
(dp1025
g4
F5485.0
sg5
F1688.0
ssI161
(dp1026
g4
F3864.0
sg5
F1222.0
ssI163
(dp1027
g4
F45577.0
sg5
F11910.0
ssI165
(dp1028
g4
F50105.0
sg5
F18153.0
ssI167
(dp1029
g4
F16893.0
sg5
F5779.0
ssI169
(dp1030
g4
F2099.0
sg5
F943.0
ssI171
(dp1031
g4
F5666.0
sg5
F1260.0
ssI173
(dp1032
g4
F5024.0
sg5
F1010.0
ssI175
(dp1033
g4
F1820.0
sg5
F539.0
ssI177
(dp1034
g4
F9535.0
sg5
F3535.0
ssI179
(dp1035
g4
F34179.0
sg5
F13003.0
ssI181
(dp1036
g4
F5034.0
sg5
F717.0
ssI183
(dp1037
g4
F9001.0
sg5
F2770.0
ssI185
(dp1038
g4
F7657.0
sg5
F1842.0
ssI187
(dp1039
g4
F68160.0
sg5
F30992.0
ssI189
(dp1040
g4
F39304.0
sg5
F14356.0
sssS'NY'
p1041
(dp1042
I0
(dp1043
g4
F4214226.0
sg5
F8659016.0
ssI1
(dp1044
g4
F75240.0
sg5
F163963.0
ssI3
(dp1045
g4
F20638.0
sg5
F11779.0
ssI5
(dp1046
g4
F57892.0
sg5
F629169.0
ssI7
(dp1047
g4
F64012.0
sg5
F82518.0
ssI9
(dp1048
g4
F31345.0
sg5
F22978.0
ssI11
(dp1049
g4
F26840.0
sg5
F30335.0
ssI13
(dp1050
g4
F48705.0
sg5
F44287.0
ssI15
(dp1051
g4
F33103.0
sg5
F29633.0
ssI17
(dp1052
g4
F18792.0
sg5
F15035.0
ssI19
(dp1053
g4
F22926.0
sg5
F30538.0
ssI21
(dp1054
g4
F22042.0
sg5
F29683.0
ssI23
(dp1055
g4
F15634.0
sg5
F18920.0
ssI25
(dp1056
g4
F19156.0
sg5
F14529.0
ssI27
(dp1057
g4
F103925.0
sg5
F123884.0
ssI29
(dp1058
g4
F281753.0
sg5
F448567.0
ssI31
(dp1059
g4
F13212.0
sg5
F14531.0
ssI33
(dp1060
g4
F13246.0
sg5
F15255.0
ssI35
(dp1061
g4
F21764.0
sg5
F15463.0
ssI37
(dp1062
g4
F27637.0
sg5
F18357.0
ssI39
(dp1063
g4
F20089.0
sg5
F15735.0
ssI41
(dp1064
g4
F3129.0
sg5
F1958.0
ssI43
(dp1065
g4
F25294.0
sg5
F19906.0
ssI45
(dp1066
g4
F33705.0
sg5
F31074.0
ssI47
(dp1067
g4
F212676.0
sg5
F1210501.0
ssI49
(dp1068
g4
F11635.0
sg5
F7876.0
ssI51
(dp1069
g4
F30063.0
sg5
F25207.0
ssI53
(dp1070
g4
F25448.0
sg5
F25884.0
ssI55
(dp1071
g4
F225822.0
sg5
F384774.0
ssI57
(dp1072
g4
F17399.0
sg5
F15489.0
ssI59
(dp1073
g4
F473085.0
sg5
F683312.0
ssI61
(dp1074
g4
F121616.0
sg5
F1009603.0
ssI63
(dp1075
g4
F80934.0
sg5
F81756.0
ssI65
(dp1076
g4
F79166.0
sg5
F78222.0
ssI67
(dp1077
g4
F131194.0
sg5
F235444.0
ssI69
(dp1078
g4
F43089.0
sg5
F46493.0
ssI71
(dp1079
g4
F124208.0
sg5
F144549.0
ssI73
(dp1080
g4
F18123.0
sg5
F10735.0
ssI75
(dp1081
g4
F43234.0
sg5
F39866.0
ssI77
(dp1082
g4
F21200.0
sg5
F21987.0
ssI79
(dp1083
g4
F44318.0
sg5
F39812.0
ssI81
(dp1084
g4
F230484.0
sg5
F970652.0
ssI83
(dp1085
g4
F54112.0
sg5
F70848.0
ssI85
(dp1086
g4
F154738.0
sg5
F167738.0
ssI87
(dp1087
g4
F96149.0
sg5
F139499.0
ssI89
(dp1088
g4
F30959.0
sg5
F35218.0
ssI91
(dp1089
g4
F90761.0
sg5
F106969.0
ssI93
(dp1090
g4
F46912.0
sg5
F70247.0
ssI95
(dp1091
g4
F14254.0
sg5
F9878.0
ssI97
(dp1092
g4
F9415.0
sg5
F6441.0
ssI99
(dp1093
g4
F11667.0
sg5
F12303.0
ssI101
(dp1094
g4
F44279.0
sg5
F28372.0
ssI103
(dp1095
g4
F558365.0
sg5
F637168.0
ssI105
(dp1096
g4
F24093.0
sg5
F25851.0
ssI107
(dp1097
g4
F22223.0
sg5
F16707.0
ssI109
(dp1098
g4
F17774.0
sg5
F52669.0
ssI111
(dp1099
g4
F56923.0
sg5
F87360.0
ssI113
(dp1100
g4
F24233.0
sg5
F27230.0
ssI115
(dp1101
g4
F21878.0
sg5
F20436.0
ssI117
(dp1102
g4
F36774.0
sg5
F29456.0
ssI119
(dp1103
g4
F221031.0
sg5
F506826.0
ssI121
(dp1104
g4
F20314.0
sg5
F10836.0
ssI123
(dp1105
g4
F9086.0
sg5
F7857.0
sssS'PA'
p1106
(dp1107
I0
(dp1108
g4
F8316747.0
sg5
F7968271.0
ssI1
(dp1109
g4
F61598.0
sg5
F28571.0
ssI3
(dp1110
g4
F517003.0
sg5
F716783.0
ssI5
(dp1111
g4
F42759.0
sg5
F14875.0
ssI7
(dp1112
g4
F88127.0
sg5
F62286.0
ssI9
(dp1113
g4
F37101.0
sg5
F7936.0
ssI11
(dp1114
g4
F185029.0
sg5
F149252.0
ssI13
(dp1115
g4
F71951.0
sg5
F27341.0
ssI15
(dp1116
g4
F34372.0
sg5
F13173.0
ssI17
(dp1117
g4
F339592.0
sg5
F322850.0
ssI19
(dp1118
g4
F120775.0
sg5
F53954.0
ssI21
(dp1119
g4
F75806.0
sg5
F38609.0
ssI23
(dp1120
g4
F2796.0
sg5
F997.0
ssI25
(dp1121
g4
F35064.0
sg5
F19001.0
ssI27
(dp1122
g4
F71456.0
sg5
F71616.0
ssI29
(dp1123
g4
F248859.0
sg5
F266776.0
ssI31
(dp1124
g4
F23824.0
sg5
F9171.0
ssI133
(dp1125
g4
F251888.0
sg5
F135946.0
ssI33
(dp1126
g4
F45085.0
sg5
F16662.0
ssI35
(dp1127
g4
F18135.0
sg5
F9826.0
ssI37
(dp1128
g4
F33109.0
sg5
F17860.0
ssI39
(dp1129
g4
F47199.0
sg5
F20601.0
ssI129
(dp1130
g4
F223944.0
sg5
F122471.0
ssI41
(dp1131
g4
F133590.0
sg5
F86764.0
ssI43
(dp1132
g4
F124089.0
sg5
F126458.0
ssI45
(dp1133
g4
F227922.0
sg5
F325603.0
ssI47
(dp1134
g4
F18106.0
sg5
F7944.0
ssI49
(dp1135
g4
F114924.0
sg5
F108867.0
ssI51
(dp1136
g4
F63949.0
sg5
F38284.0
ssI53
(dp1137
g4
F3179.0
sg5
F1334.0
ssI55
(dp1138
g4
F98074.0
sg5
F35060.0
ssI57
(dp1139
g4
F11114.0
sg5
F1923.0
ssI59
(dp1140
g4
F18825.0
sg5
F9491.0
ssI61
(dp1141
g4
F27353.0
sg5
F9550.0
ssI63
(dp1142
g4
F47109.0
sg5
F24020.0
ssI65
(dp1143
g4
F27650.0
sg5
F7379.0
ssI67
(dp1144
g4
F15870.0
sg5
F3956.0
ssI69
(dp1145
g4
F88452.0
sg5
F105301.0
ssI71
(dp1146
g4
F279297.0
sg5
F179233.0
ssI73
(dp1147
g4
F47933.0
sg5
F29183.0
ssI75
(dp1148
g4
F76470.0
sg5
F35982.0
ssI77
(dp1149
g4
F142729.0
sg5
F150671.0
ssI79
(dp1150
g4
F143162.0
sg5
F107029.0
ssI81
(dp1151
g4
F68361.0
sg5
F27054.0
ssI83
(dp1152
g4
F22206.0
sg5
F7597.0
ssI85
(dp1153
g4
F59070.0
sg5
F35824.0
ssI87
(dp1154
g4
F27095.0
sg5
F7579.0
ssI89
(dp1155
g4
F60858.0
sg5
F64385.0
ssI91
(dp1156
g4
F347757.0
sg5
F483899.0
ssI93
(dp1157
g4
F10333.0
sg5
F5747.0
ssI95
(dp1158
g4
F143273.0
sg5
F129913.0
ssI97
(dp1159
g4
F45822.0
sg5
F19700.0
ssI99
(dp1160
g4
F30509.0
sg5
F9590.0
ssI131
(dp1161
g4
F15782.0
sg5
F7483.0
ssI101
(dp1162
g4
F218450.0
sg5
F1099583.0
ssI103
(dp1163
g4
F31202.0
sg5
F18583.0
ssI105
(dp1164
g4
F12230.0
sg5
F2686.0
ssI107
(dp1165
g4
F81684.0
sg5
F36255.0
ssI109
(dp1166
g4
F22576.0
sg5
F8287.0
ssI111
(dp1167
g4
F52787.0
sg5
F15698.0
ssI113
(dp1168
g4
F4367.0
sg5
F1629.0
ssI115
(dp1169
g4
F25241.0
sg5
F10559.0
ssI117
(dp1170
g4
F25627.0
sg5
F7409.0
ssI119
(dp1171
g4
F21163.0
sg5
F12219.0
ssI121
(dp1172
g4
F29115.0
sg5
F12463.0
ssI123
(dp1173
g4
F23691.0
sg5
F9670.0
ssI125
(dp1174
g4
F113391.0
sg5
F70675.0
ssI127
(dp1175
g4
F28915.0
sg5
F13297.0
sssS'CA'
p1176
(dp1177
I0
(dp1178
g4
F3053999.0
sg5
F13227526.0
ssI1
(dp1179
g4
F59384.0
sg5
F645859.0
ssI3
(dp1180
g4
F211.0
sg5
F777.0
ssI5
(dp1181
g4
F6069.0
sg5
F11215.0
ssI7
(dp1182
g4
F35354.0
sg5
F88432.0
ssI9
(dp1183
g4
F10126.0
sg5
F19737.0
ssI11
(dp1184
g4
F2709.0
sg5
F5554.0
ssI13
(dp1185
g4
F76743.0
sg5
F461651.0
ssI15
(dp1186
g4
F4370.0
sg5
F9264.0
ssI17
(dp1187
g4
F37286.0
sg5
F82986.0
ssI19
(dp1188
g4
F79858.0
sg5
F225868.0
ssI21
(dp1189
g4
F3405.0
sg5
F5947.0
ssI23
(dp1190
g4
F10883.0
sg5
F48129.0
ssI25
(dp1191
g4
F5607.0
sg5
F33047.0
ssI27
(dp1192
g4
F3328.0
sg5
F7345.0
ssI29
(dp1193
g4
F95064.0
sg5
F199691.0
ssI31
(dp1194
g4
F13158.0
sg5
F28387.0
ssI33
(dp1195
g4
F5752.0
sg5
F17144.0
ssI35
(dp1196
g4
F5219.0
sg5
F6779.0
ssI37
(dp1197
g4
F525308.0
sg5
F3643299.0
ssI39
(dp1198
g4
F19221.0
sg5
F40672.0
ssI41
(dp1199
g4
F13127.0
sg5
F139031.0
ssI43
(dp1200
g4
F4317.0
sg5
F8105.0
ssI45
(dp1201
g4
F3571.0
sg5
F16892.0
ssI47
(dp1202
g4
F18486.0
sg5
F58022.0
ssI49
(dp1203
g4
F2413.0
sg5
F3116.0
ssI51
(dp1204
g4
F1989.0
sg5
F6452.0
ssI53
(dp1205
g4
F19580.0
sg5
F111998.0
ssI55
(dp1206
g4
F9335.0
sg5
F48773.0
ssI57
(dp1207
g4
F14686.0
sg5
F42759.0
ssI59
(dp1208
g4
F356892.0
sg5
F1094856.0
ssI61
(dp1209
g4
F55212.0
sg5
F127439.0
ssI63
(dp1210
g4
F5079.0
sg5
F9752.0
ssI65
(dp1211
g4
F219359.0
sg5
F617876.0
ssI67
(dp1212
g4
F114359.0
sg5
F457450.0
ssI69
(dp1213
g4
F4358.0
sg5
F16914.0
ssI71
(dp1214
g4
F188080.0
sg5
F585853.0
ssI73
(dp1215
g4
F269422.0
sg5
F968338.0
ssI75
(dp1216
g4
F26461.0
sg5
F474672.0
ssI77
(dp1217
g4
F56194.0
sg5
F187528.0
ssI79
(dp1218
g4
F39263.0
sg5
F120843.0
ssI81
(dp1219
g4
F37996.0
sg5
F333277.0
ssI83
(dp1220
g4
F38973.0
sg5
F174696.0
ssI85
(dp1221
g4
F91990.0
sg5
F696613.0
ssI87
(dp1222
g4
F14523.0
sg5
F133187.0
ssI89
(dp1223
g4
F35256.0
sg5
F54053.0
ssI91
(dp1224
g4
F1030.0
sg5
F1816.0
ssI93
(dp1225
g4
F8392.0
sg5
F16121.0
ssI95
(dp1226
g4
F38945.0
sg5
F180936.0
ssI97
(dp1227
g4
F37421.0
sg5
F262068.0
ssI99
(dp1228
g4
F52567.0
sg5
F141881.0
ssI101
(dp1229
g4
F10947.0
sg5
F23526.0
ssI103
(dp1230
g4
F10468.0
sg5
F16502.0
ssI105
(dp1231
g4
F2409.0
sg5
F5647.0
ssI107
(dp1232
g4
F33372.0
sg5
F72052.0
ssI109
(dp1233
g4
F10614.0
sg5
F21083.0
ssI111
(dp1234
g4
F97516.0
sg5
F349177.0
ssI113
(dp1235
g4
F13178.0
sg5
F79992.0
ssI115
(dp1236
g4
F8869.0
sg5
F16718.0
sssS'NV'
p1237
(dp1238
I0
(dp1239
g4
F676879.0
sg5
F636053.0
ssI1
(dp1240
g4
F15537.0
sg5
F4450.0
ssI3
(dp1241
g4
F622887.0
sg5
F786233.0
ssI5
(dp1242
g4
F34982.0
sg5
F16860.0
ssI7
(dp1243
g4
F26994.0
sg5
F6596.0
ssI9
(dp1244
g4
F641.0
sg5
F131.0
ssI11
(dp1245
g4
F1415.0
sg5
F162.0
ssI13
(dp1246
g4
F8918.0
sg5
F2792.0
ssI15
(dp1247
g4
F3532.0
sg5
F820.0
ssI17
(dp1248
g4
F3280.0
sg5
F600.0
ssI19
(dp1249
g4
F31236.0
sg5
F12469.0
ssI21
(dp1250
g4
F2320.0
sg5
F1264.0
ssI23
(dp1251
g4
F24927.0
sg5
F10348.0
ssI33
(dp1252
g4
F5314.0
sg5
F1430.0
ssI27
(dp1253
g4
F2689.0
sg5
F896.0
ssI29
(dp1254
g4
F3167.0
sg5
F1543.0
ssI510
(dp1255
g4
F26152.0
sg5
F19351.0
ssI31
(dp1256
g4
F191755.0
sg5
F192466.0
sssS'VA'
p1257
(dp1258
I0
(dp1259
g4
F1800063.0
sg5
F1562607.0
ssI1
(dp1260
g4
F8582.0
sg5
F6737.0
ssI3
(dp1261
g4
F19232.0
sg5
F33297.0
ssI5
(dp1262
g4
F4873.0
sg5
F2165.0
ssI7
(dp1263
g4
F4704.0
sg5
F2150.0
ssI520
(dp1264
g4
F4884.0
sg5
F1832.0
ssI9
(dp1265
g4
F9643.0
sg5
F4986.0
ssI11
(dp1266
g4
F5714.0
sg5
F2023.0
ssI13
(dp1267
g4
F20155.0
sg5
F91879.0
ssI15
(dp1268
g4
F26152.0
sg5
F8108.0
ssI17
(dp1269
g4
F1548.0
sg5
F603.0
ssI530
(dp1270
g4
F1432.0
sg5
F693.0
ssI19
(dp1271
g4
F30578.0
sg5
F9733.0
ssI21
(dp1272
g4
F2572.0
sg5
F453.0
ssI23
(dp1273
g4
F13369.0
sg5
F4492.0
ssI25
(dp1274
g4
F3045.0
sg5
F4473.0
ssI27
(dp1275
g4
F7292.0
sg5
F1721.0
ssI540
(dp1276
g4
F2951.0
sg5
F17865.0
ssI29
(dp1277
g4
F3969.0
sg5
F3128.0
ssI31
(dp1278
g4
F19442.0
sg5
F6597.0
ssI33
(dp1279
g4
F7143.0
sg5
F6425.0
ssI35
(dp1280
g4
F10653.0
sg5
F2557.0
ssI36
(dp1281
g4
F1381.0
sg5
F2244.0
ssI37
(dp1282
g4
F3479.0
sg5
F2153.0
ssI550
(dp1283
g4
F53988.0
sg5
F52554.0
ssI41
(dp1284
g4
F84938.0
sg5
F80993.0
ssI43
(dp1285
g4
F4657.0
sg5
F3047.0
ssI45
(dp1286
g4
F2139.0
sg5
F541.0
ssI47
(dp1287
g4
F13341.0
sg5
F7744.0
ssI49
(dp1288
g4
F2693.0
sg5
F2032.0
ssI51
(dp1289
g4
F4932.0
sg5
F1335.0
ssI53
(dp1290
g4
F7447.0
sg5
F5765.0
ssI57
(dp1291
g4
F2657.0
sg5
F2541.0
ssI570
(dp1292
g4
F5681.0
sg5
F2367.0
ssI59
(dp1293
g4
F157837.0
sg5
F354485.0
ssI61
(dp1294
g4
F22110.0
sg5
F12960.0
ssI63
(dp1295
g4
F5289.0
sg5
F2300.0
ssI65
(dp1296
g4
F7018.0
sg5
F5751.0
ssI67
(dp1297
g4
F18560.0
sg5
F7254.0
ssI580
(dp1298
g4
F1349.0
sg5
F914.0
ssI69
(dp1299
g4
F26069.0
sg5
F11920.0
ssI71
(dp1300
g4
F5930.0
sg5
F1949.0
ssI73
(dp1301
g4
F13087.0
sg5
F5399.0
ssI75
(dp1302
g4
F8374.0
sg5
F4884.0
ssI77
(dp1303
g4
F5593.0
sg5
F1407.0
ssI590
(dp1304
g4
F7306.0
sg5
F11051.0
ssI79
(dp1305
g4
F5943.0
sg5
F2923.0
ssI81
(dp1306
g4
F1737.0
sg5
F2558.0
ssI83
(dp1307
g4
F9698.0
sg5
F6890.0
ssI85
(dp1308
g4
F39592.0
sg5
F19360.0
ssI87
(dp1309
g4
F59674.0
sg5
F93615.0
ssI600
(dp1310
g4
F3695.0
sg5
F7363.0
ssI89
(dp1311
g4
F15207.0
sg5
F8199.0
ssI91
(dp1312
g4
F958.0
sg5
F371.0
ssI93
(dp1313
g4
F11971.0
sg5
F7673.0
ssI95
(dp1314
g4
F21284.0
sg5
F19091.0
ssI97
(dp1315
g4
F2059.0
sg5
F1451.0
ssI610
(dp1316
g4
F1323.0
sg5
F5810.0
ssI99
(dp1317
g4
F7338.0
sg5
F4002.0
ssI101
(dp1318
g4
F5963.0
sg5
F2752.0
ssI103
(dp1319
g4
F3520.0
sg5
F2862.0
ssI105
(dp1320
g4
F7542.0
sg5
F1627.0
ssI107
(dp1321
g4
F69633.0
sg5
F99909.0
ssI620
(dp1322
g4
F1421.0
sg5
F2516.0
ssI109
(dp1323
g4
F10507.0
sg5
F6208.0
ssI111
(dp1324
g4
F3206.0
sg5
F2226.0
ssI113
(dp1325
g4
F4418.0
sg5
F2202.0
ssI115
(dp1326
g4
F3515.0
sg5
F1563.0
ssI117
(dp1327
g4
F8283.0
sg5
F6571.0
ssI630
(dp1328
g4
F3731.0
sg5
F6690.0
ssI119
(dp1329
g4
F3668.0
sg5
F2107.0
ssI121
(dp1330
g4
F19455.0
sg5
F20015.0
ssI125
(dp1331
g4
F4150.0
sg5
F3677.0
ssI127
(dp1332
g4
F8117.0
sg5
F3545.0
ssI640
(dp1333
g4
F1603.0
sg5
F680.0
ssI131
(dp1334
g4
F2686.0
sg5
F3255.0
ssI133
(dp1335
g4
F5089.0
sg5
F2830.0
ssI135
(dp1336
g4
F3712.0
sg5
F2829.0
ssI137
(dp1337
g4
F10511.0
sg5
F5955.0
ssI650
(dp1338
g4
F17802.0
sg5
F41030.0
ssI139
(dp1339
g4
F7824.0
sg5
F2514.0
ssI141
(dp1340
g4
F6454.0
sg5
F1768.0
ssI143
(dp1341
g4
F21742.0
sg5
F9195.0
ssI145
(dp1342
g4
F11875.0
sg5
F4057.0
ssI147
(dp1343
g4
F4099.0
sg5
F4590.0
ssI660
(dp1344
g4
F6232.0
sg5
F10100.0
ssI149
(dp1345
g4
F9157.0
sg5
F6419.0
ssI153
(dp1346
g4
F54065.0
sg5
F83093.0
ssI155
(dp1347
g4
F10314.0
sg5
F4170.0
ssI157
(dp1348
g4
F2532.0
sg5
F1741.0
ssI670
(dp1349
g4
F3885.0
sg5
F4722.0
ssI159
(dp1350
g4
F2213.0
sg5
F1347.0
ssI161
(dp1351
g4
F30857.0
sg5
F16787.0
ssI163
(dp1352
g4
F6671.0
sg5
F3506.0
ssI165
(dp1353
g4
F25269.0
sg5
F9361.0
ssI678
(dp1354
g4
F766.0
sg5
F1514.0
ssI167
(dp1355
g4
F9516.0
sg5
F2328.0
ssI680
(dp1356
g4
F17979.0
sg5
F14787.0
ssI169
(dp1357
g4
F8242.0
sg5
F1579.0
ssI171
(dp1358
g4
F14078.0
sg5
F5269.0
ssI173
(dp1359
g4
F9746.0
sg5
F2661.0
ssI175
(dp1360
g4
F5035.0
sg5
F3595.0
ssI177
(dp1361
g4
F34619.0
sg5
F24204.0
ssI690
(dp1362
g4
F2149.0
sg5
F3531.0
ssI179
(dp1363
g4
F33840.0
sg5
F27879.0
ssI181
(dp1364
g4
F1785.0
sg5
F2069.0
ssI183
(dp1365
g4
F2055.0
sg5
F2874.0
ssI185
(dp1366
g4
F15160.0
sg5
F2895.0
ssI683
(dp1367
g4
F5934.0
sg5
F8395.0
ssI187
(dp1368
g4
F11762.0
sg5
F5165.0
ssI700
(dp1369
g4
F23650.0
sg5
F40997.0
ssI191
(dp1370
g4
F19309.0
sg5
F5548.0
ssI193
(dp1371
g4
F4331.0
sg5
F3723.0
ssI195
(dp1372
g4
F11983.0
sg5
F2687.0
ssI197
(dp1373
g4
F10044.0
sg5
F2765.0
ssI710
(dp1374
g4
F19875.0
sg5
F51429.0
ssI199
(dp1375
g4
F18823.0
sg5
F12989.0
ssI720
(dp1376
g4
F1021.0
sg5
F383.0
ssI730
(dp1377
g4
F1448.0
sg5
F12005.0
ssI735
(dp1378
g4
F5089.0
sg5
F1599.0
ssI740
(dp1379
g4
F12773.0
sg5
F28462.0
ssI750
(dp1380
g4
F2637.0
sg5
F2923.0
ssI760
(dp1381
g4
F14254.0
sg5
F74640.0
ssI770
(dp1382
g4
F16045.0
sg5
F23403.0
ssI775
(dp1383
g4
F7225.0
sg5
F4212.0
ssI790
(dp1384
g4
F5129.0
sg5
F5329.0
ssI800
(dp1385
g4
F17206.0
sg5
F23012.0
ssI810
(dp1386
g4
F84389.0
sg5
F76744.0
ssI820
(dp1387
g4
F4798.0
sg5
F3762.0
ssI830
(dp1388
g4
F1921.0
sg5
F5199.0
ssI840
(dp1389
g4
F4786.0
sg5
F5161.0
ssI685
(dp1390
g4
F1732.0
sg5
F3218.0
ssI595
(dp1391
g4
F792.0
sg5
F1531.0
ssI510
(dp1392
g4
F13241.0
sg5
F57147.0
sssS'CO'
p1393
(dp1394
I0
(dp1395
g4
F2238893.0
sg5
F2232584.0
ssI1
(dp1396
g4
F109915.0
sg5
F130219.0
ssI3
(dp1397
g4
F5906.0
sg5
F6844.0
ssI5
(dp1398
g4
F201250.0
sg5
F266870.0
ssI7
(dp1399
g4
F8282.0
sg5
F5227.0
ssI9
(dp1400
g4
F3162.0
sg5
F837.0
ssI11
(dp1401
g4
F2181.0
sg5
F1375.0
ssI13
(dp1402
g4
F73744.0
sg5
F224044.0
ssI14
(dp1403
g4
F29248.0
sg5
F38765.0
ssI15
(dp1404
g4
F10557.0
sg5
F9922.0
ssI17
(dp1405
g4
F1711.0
sg5
F342.0
ssI19
(dp1406
g4
F4811.0
sg5
F5326.0
ssI21
(dp1407
g4
F3739.0
sg5
F3800.0
ssI23
(dp1408
g4
F1123.0
sg5
F2280.0
ssI25
(dp1409
g4
F1993.0
sg5
F838.0
ssI27
(dp1410
g4
F4041.0
sg5
F1741.0
ssI29
(dp1411
g4
F22487.0
sg5
F8924.0
ssI31
(dp1412
g4
F81271.0
sg5
F306797.0
ssI33
(dp1413
g4
F1735.0
sg5
F557.0
ssI35
(dp1414
g4
F205735.0
sg5
F135430.0
ssI37
(dp1415
g4
F16179.0
sg5
F25020.0
ssI39
(dp1416
g4
F22928.0
sg5
F6655.0
ssI41
(dp1417
g4
F357512.0
sg5
F217357.0
ssI43
(dp1418
g4
F29168.0
sg5
F11919.0
ssI45
(dp1419
g4
F22695.0
sg5
F20817.0
ssI47
(dp1420
g4
F3065.0
sg5
F3361.0
ssI49
(dp1421
g4
F8845.0
sg5
F6902.0
ssI51
(dp1422
g4
F6184.0
sg5
F10147.0
ssI53
(dp1423
g4
F655.0
sg5
F443.0
ssI55
(dp1424
g4
F3563.0
sg5
F3570.0
ssI57
(dp1425
g4
F1210.0
sg5
F406.0
ssI59
(dp1426
g4
F261937.0
sg5
F306285.0
ssI61
(dp1427
g4
F1347.0
sg5
F287.0
ssI63
(dp1428
g4
F5434.0
sg5
F1405.0
ssI65
(dp1429
g4
F2435.0
sg5
F3287.0
ssI67
(dp1430
g4
F25019.0
sg5
F30992.0
ssI69
(dp1431
g4
F148559.0
sg5
F166695.0
ssI71
(dp1432
g4
F6782.0
sg5
F5876.0
ssI73
(dp1433
g4
F3597.0
sg5
F973.0
ssI75
(dp1434
g4
F13798.0
sg5
F4601.0
ssI77
(dp1435
g4
F90840.0
sg5
F42703.0
ssI79
(dp1436
g4
F670.0
sg5
F538.0
ssI81
(dp1437
g4
F10069.0
sg5
F2211.0
ssI83
(dp1438
g4
F15178.0
sg5
F8169.0
ssI85
(dp1439
g4
F22932.0
sg5
F9502.0
ssI87
(dp1440
g4
F15576.0
sg5
F7016.0
ssI89
(dp1441
g4
F5776.0
sg5
F3844.0
ssI91
(dp1442
g4
F2720.0
sg5
F3417.0
ssI93
(dp1443
g4
F11898.0
sg5
F7004.0
ssI95
(dp1444
g4
F3361.0
sg5
F1131.0
ssI97
(dp1445
g4
F5145.0
sg5
F13999.0
ssI99
(dp1446
g4
F6596.0
sg5
F2809.0
ssI101
(dp1447
g4
F53455.0
sg5
F59181.0
ssI103
(dp1448
g4
F4884.0
sg5
F950.0
ssI105
(dp1449
g4
F6013.0
sg5
F4337.0
ssI107
(dp1450
g4
F10333.0
sg5
F15156.0
ssI109
(dp1451
g4
F2115.0
sg5
F2841.0
ssI111
(dp1452
g4
F408.0
sg5
F544.0
ssI113
(dp1453
g4
F2082.0
sg5
F5898.0
ssI115
(dp1454
g4
F1878.0
sg5
F693.0
ssI117
(dp1455
g4
F10207.0
sg5
F18987.0
ssI119
(dp1456
g4
F18981.0
sg5
F7549.0
ssI121
(dp1457
g4
F4362.0
sg5
F809.0
ssI123
(dp1458
g4
F137015.0
sg5
F88559.0
ssI125
(dp1459
g4
F7058.0
sg5
F1913.0
sssS'AK'
p1460
(dp1461
I0
(dp1462
g4
F234807.0
sg5
F118010.0
sssS'AL'
p1463
(dp1464
I0
(dp1465
g4
F2094046.0
sg5
F1125622.0
ssI1
(dp1466
g4
F36242.0
sg5
F12198.0
ssI3
(dp1467
g4
F146684.0
sg5
F37507.0
ssI5
(dp1468
g4
F10842.0
sg5
F9605.0
ssI7
(dp1469
g4
F13342.0
sg5
F3955.0
ssI9
(dp1470
g4
F44925.0
sg5
F5124.0
ssI11
(dp1471
g4
F2305.0
sg5
F6894.0
ssI13
(dp1472
g4
F9719.0
sg5
F7369.0
ssI15
(dp1473
g4
F65720.0
sg5
F27303.0
ssI17
(dp1474
g4
F15628.0
sg5
F11588.0
ssI19
(dp1475
g4
F17302.0
sg5
F3415.0
ssI21
(dp1476
g4
F29636.0
sg5
F6235.0
ssI23
(dp1477
g4
F8131.0
sg5
F6101.0
ssI25
(dp1478
g4
F14236.0
sg5
F11234.0
ssI27
(dp1479
g4
F10361.0
sg5
F2607.0
ssI29
(dp1480
g4
F11268.0
sg5
F1530.0
ssI31
(dp1481
g4
F31516.0
sg5
F8667.0
ssI133
(dp1482
g4
F18039.0
sg5
F2138.0
ssI33
(dp1483
g4
F32555.0
sg5
F15719.0
ssI35
(dp1484
g4
F6701.0
sg5
F6067.0
ssI37
(dp1485
g4
F6751.0
sg5
F3564.0
ssI39
(dp1486
g4
F25866.0
sg5
F5111.0
ssI129
(dp1487
g4
F11850.0
sg5
F4821.0
ssI41
(dp1488
g4
F8900.0
sg5
F3396.0
ssI43
(dp1489
g4
F64480.0
sg5
F8861.0
ssI45
(dp1490
g4
F27440.0
sg5
F9027.0
ssI47
(dp1491
g4
F11837.0
sg5
F25206.0
ssI49
(dp1492
g4
F42492.0
sg5
F8509.0
ssI51
(dp1493
g4
F55197.0
sg5
F17261.0
ssI53
(dp1494
g4
F20477.0
sg5
F9415.0
ssI55
(dp1495
g4
F63355.0
sg5
F22230.0
ssI57
(dp1496
g4
F13252.0
sg5
F2852.0
ssI59
(dp1497
g4
F18135.0
sg5
F5044.0
ssI61
(dp1498
g4
F19546.0
sg5
F3320.0
ssI63
(dp1499
g4
F1756.0
sg5
F7835.0
ssI65
(dp1500
g4
F6378.0
sg5
F9422.0
ssI67
(dp1501
g4
F11120.0
sg5
F4646.0
ssI69
(dp1502
g4
F60887.0
sg5
F21655.0
ssI71
(dp1503
g4
F32359.0
sg5
F8187.0
ssI73
(dp1504
g4
F270066.0
sg5
F303082.0
ssI75
(dp1505
g4
F11448.0
sg5
F2159.0
ssI77
(dp1506
g4
F54668.0
sg5
F21448.0
ssI79
(dp1507
g4
F20887.0
sg5
F7765.0
ssI81
(dp1508
g4
F70689.0
sg5
F42210.0
ssI83
(dp1509
g4
F57777.0
sg5
F19441.0
ssI85
(dp1510
g4
F3590.0
sg5
F9461.0
ssI87
(dp1511
g4
F2904.0
sg5
F14358.0
ssI89
(dp1512
g4
F186651.0
sg5
F124913.0
ssI91
(dp1513
g4
F10509.0
sg5
F11017.0
ssI93
(dp1514
g4
F22025.0
sg5
F3393.0
ssI95
(dp1515
g4
F57736.0
sg5
F10805.0
ssI97
(dp1516
g4
F184765.0
sg5
F136373.0
ssI99
(dp1517
g4
F11599.0
sg5
F8543.0
ssI131
(dp1518
g4
F3552.0
sg5
F8175.0
ssI101
(dp1519
g4
F70319.0
sg5
F116410.0
ssI103
(dp1520
g4
F74748.0
sg5
F23500.0
ssI105
(dp1521
g4
F2896.0
sg5
F7477.0
ssI107
(dp1522
g4
F10836.0
sg5
F7880.0
ssI109
(dp1523
g4
F15501.0
sg5
F10059.0
ssI111
(dp1524
g4
F15144.0
sg5
F4712.0
ssI113
(dp1525
g4
F18616.0
sg5
F19062.0
ssI115
(dp1526
g4
F62776.0
sg5
F12147.0
ssI117
(dp1527
g4
F148009.0
sg5
F47356.0
ssI119
(dp1528
g4
F3237.0
sg5
F9343.0
ssI121
(dp1529
g4
F41025.0
sg5
F24726.0
ssI123
(dp1530
g4
F25736.0
sg5
F10830.0
ssI125
(dp1531
g4
F97600.0
sg5
F63332.0
ssI127
(dp1532
g4
F47570.0
sg5
F10031.0
sssS'AR'
p1533
(dp1534
I149
(dp1535
g4
F8813.0
sg5
F3346.0
ssI1
(dp1536
g4
F7508.0
sg5
F4280.0
ssI3
(dp1537
g4
F10444.0
sg5
F4754.0
ssI5
(dp1538
g4
F28706.0
sg5
F8390.0
ssI0
(dp1539
g4
F1413213.0
sg5
F509019.0
ssI7
(dp1540
g4
F124089.0
sg5
F55242.0
ssI145
(dp1541
g4
F40417.0
sg5
F12485.0
ssI9
(dp1542
g4
F24705.0
sg5
F5544.0
ssI11
(dp1543
g4
F4181.0
sg5
F2660.0
ssI13
(dp1544
g4
F2889.0
sg5
F1405.0
ssI15
(dp1545
g4
F13534.0
sg5
F6644.0
ssI141
(dp1546
g4
F10052.0
sg5
F3690.0
ssI17
(dp1547
g4
F3540.0
sg5
F4638.0
ssI19
(dp1548
g4
F8337.0
sg5
F7682.0
ssI21
(dp1549
g4
F7063.0
sg5
F3526.0
ssI23
(dp1550
g4
F17832.0
sg5
F5003.0
ssI137
(dp1551
g4
F7740.0
sg5
F2703.0
ssI25
(dp1552
g4
F4622.0
sg5
F1757.0
ssI27
(dp1553
g4
F10896.0
sg5
F5897.0
ssI29
(dp1554
g4
F9242.0
sg5
F5677.0
ssI31
(dp1555
g4
F45903.0
sg5
F20665.0
ssI133
(dp1556
g4
F6316.0
sg5
F2151.0
ssI33
(dp1557
g4
F32630.0
sg5
F9509.0
ssI35
(dp1558
g4
F13718.0
sg5
F15744.0
ssI37
(dp1559
g4
F9028.0
sg5
F3987.0
ssI39
(dp1560
g4
F2935.0
sg5
F2335.0
ssI129
(dp1561
g4
F5659.0
sg5
F1326.0
ssI41
(dp1562
g4
F3638.0
sg5
F4482.0
ssI43
(dp1563
g4
F7664.0
sg5
F4776.0
ssI45
(dp1564
g4
F56629.0
sg5
F31160.0
ssI47
(dp1565
g4
F9778.0
sg5
F3065.0
ssI49
(dp1566
g4
F6723.0
sg5
F2161.0
ssI51
(dp1567
g4
F50281.0
sg5
F26626.0
ssI53
(dp1568
g4
F10173.0
sg5
F3284.0
ssI55
(dp1569
g4
F20522.0
sg5
F6448.0
ssI57
(dp1570
g4
F8549.0
sg5
F4719.0
ssI59
(dp1571
g4
F15393.0
sg5
F7128.0
ssI61
(dp1572
g4
F6122.0
sg5
F2726.0
ssI63
(dp1573
g4
F18935.0
sg5
F6620.0
ssI65
(dp1574
g4
F7635.0
sg5
F2512.0
ssI67
(dp1575
g4
F6215.0
sg5
F3534.0
ssI147
(dp1576
g4
F2260.0
sg5
F2635.0
ssI69
(dp1577
g4
F18013.0
sg5
F31016.0
ssI71
(dp1578
g4
F11734.0
sg5
F5299.0
ssI73
(dp1579
g4
F3457.0
sg5
F1976.0
ssI75
(dp1580
g4
F7976.0
sg5
F2643.0
ssI143
(dp1581
g4
F82422.0
sg5
F65757.0
ssI77
(dp1582
g4
F2500.0
sg5
F3371.0
ssI79
(dp1583
g4
F4645.0
sg5
F2692.0
ssI81
(dp1584
g4
F6972.0
sg5
F2839.0
ssI83
(dp1585
g4
F10940.0
sg5
F4049.0
ssI139
(dp1586
g4
F20112.0
sg5
F10398.0
ssI85
(dp1587
g4
F37340.0
sg5
F13272.0
ssI87
(dp1588
g4
F9429.0
sg5
F3630.0
ssI89
(dp1589
g4
F10099.0
sg5
F2636.0
ssI91
(dp1590
g4
F22266.0
sg5
F8372.0
ssI135
(dp1591
g4
F10530.0
sg5
F3081.0
ssI93
(dp1592
g4
F13753.0
sg5
F10595.0
ssI95
(dp1593
g4
F2693.0
sg5
F2625.0
ssI97
(dp1594
g4
F4874.0
sg5
F1702.0
ssI99
(dp1595
g4
F3882.0
sg5
F2271.0
ssI131
(dp1596
g4
F57808.0
sg5
F25125.0
ssI101
(dp1597
g4
F5708.0
sg5
F1453.0
ssI103
(dp1598
g4
F10620.0
sg5
F8369.0
ssI105
(dp1599
g4
F5537.0
sg5
F2416.0
ssI107
(dp1600
g4
F4841.0
sg5
F8052.0
ssI109
(dp1601
g4
F5969.0
sg5
F1638.0
ssI111
(dp1602
g4
F8442.0
sg5
F3835.0
ssI113
(dp1603
g4
F12655.0
sg5
F2862.0
ssI115
(dp1604
g4
F30509.0
sg5
F10438.0
ssI117
(dp1605
g4
F4631.0
sg5
F1904.0
ssI119
(dp1606
g4
F125469.0
sg5
F178083.0
ssI121
(dp1607
g4
F8773.0
sg5
F3084.0
ssI123
(dp1608
g4
F6348.0
sg5
F7674.0
ssI125
(dp1609
g4
F68967.0
sg5
F29378.0
ssI127
(dp1610
g4
F4530.0
sg5
F1248.0
sssS'VT'
p1611
(dp1612
I0
(dp1613
g4
F269391.0
sg5
F593846.0
ssI1
(dp1614
g4
F21686.0
sg5
F31672.0
ssI3
(dp1615
g4
F19996.0
sg5
F27921.0
ssI5
(dp1616
g4
F20664.0
sg5
F18287.0
ssI7
(dp1617
g4
F77277.0
sg5
F154107.0
ssI9
(dp1618
g4
F4918.0
sg5
F3079.0
ssI11
(dp1619
g4
F31790.0
sg5
F27724.0
ssI13
(dp1620
g4
F5652.0
sg5
F5875.0
ssI15
(dp1621
g4
F14911.0
sg5
F20218.0
ssI17
(dp1622
g4
F19229.0
sg5
F21453.0
ssI19
(dp1623
g4
F18642.0
sg5
F14503.0
ssI21
(dp1624
g4
F43392.0
sg5
F39203.0
ssI23
(dp1625
g4
F34888.0
sg5
F51971.0
ssI25
(dp1626
g4
F18955.0
sg5
F42351.0
ssI27
(dp1627
g4
F32416.0
sg5
F50297.0
sssS'IL'
p1628
(dp1629
I0
(dp1630
g4
F3983757.0
sg5
F5232343.0
ssI1
(dp1631
g4
F40778.0
sg5
F19977.0
ssI3
(dp1632
g4
F2617.0
sg5
F2773.0
ssI5
(dp1633
g4
F8720.0
sg5
F5267.0
ssI7
(dp1634
g4
F24758.0
sg5
F17429.0
ssI9
(dp1635
g4
F3142.0
sg5
F1266.0
ssI11
(dp1636
g4
F17679.0
sg5
F12829.0
ssI13
(dp1637
g4
F2848.0
sg5
F2011.0
ssI15
(dp1638
g4
F8776.0
sg5
F5004.0
ssI17
(dp1639
g4
F6130.0
sg5
F3412.0
ssI19
(dp1640
g4
F71760.0
sg5
F95049.0
ssI21
(dp1641
g4
F19819.0
sg5
F8845.0
ssI23
(dp1642
g4
F10569.0
sg5
F4265.0
ssI25
(dp1643
g4
F8905.0
sg5
F2923.0
ssI27
(dp1644
g4
F22426.0
sg5
F10352.0
ssI29
(dp1645
g4
F25572.0
sg5
F14778.0
ssI31
(dp1646
g4
F950995.0
sg5
F2949762.0
ssI33
(dp1647
g4
F11484.0
sg5
F4590.0
ssI35
(dp1648
g4
F7990.0
sg5
F2356.0
ssI37
(dp1649
g4
F38350.0
sg5
F40254.0
ssI39
(dp1650
g4
F10074.0
sg5
F3848.0
ssI41
(dp1651
g4
F11289.0
sg5
F3914.0
ssI43
(dp1652
g4
F354556.0
sg5
F425778.0
ssI45
(dp1653
g4
F10913.0
sg5
F3789.0
ssI47
(dp1654
g4
F5098.0
sg5
F1156.0
ssI49
(dp1655
g4
F26110.0
sg5
F6872.0
ssI51
(dp1656
g4
F13107.0
sg5
F5010.0
ssI53
(dp1657
g4
F8971.0
sg5
F2827.0
ssI55
(dp1658
g4
F21986.0
sg5
F13229.0
ssI57
(dp1659
g4
F16172.0
sg5
F12829.0
ssI59
(dp1660
g4
F3151.0
sg5
F1919.0
ssI61
(dp1661
g4
F7198.0
sg5
F3221.0
ssI63
(dp1662
g4
F25004.0
sg5
F17446.0
ssI65
(dp1663
g4
F5375.0
sg5
F2426.0
ssI67
(dp1664
g4
F10210.0
sg5
F4675.0
ssI69
(dp1665
g4
F2785.0
sg5
F1282.0
ssI71
(dp1666
g4
F3971.0
sg5
F2554.0
ssI73
(dp1667
g4
F27143.0
sg5
F18294.0
ssI75
(dp1668
g4
F19084.0
sg5
F5242.0
ssI77
(dp1669
g4
F19872.0
sg5
F25339.0
ssI79
(dp1670
g4
F7283.0
sg5
F2344.0
ssI81
(dp1671
g4
F20456.0
sg5
F11294.0
ssI83
(dp1672
g4
F13566.0
sg5
F6899.0
ssI85
(dp1673
g4
F12091.0
sg5
F8965.0
ssI87
(dp1674
g4
F8212.0
sg5
F3184.0
ssI89
(dp1675
g4
F169240.0
sg5
F192481.0
ssI91
(dp1676
g4
F47878.0
sg5
F39748.0
ssI93
(dp1677
g4
F48465.0
sg5
F46048.0
ssI95
(dp1678
g4
F20915.0
sg5
F20455.0
ssI97
(dp1679
g4
F242200.0
sg5
F316074.0
ssI99
(dp1680
g4
F49343.0
sg5
F41050.0
ssI101
(dp1681
g4
F8217.0
sg5
F3221.0
ssI103
(dp1682
g4
F17221.0
sg5
F11061.0
ssI105
(dp1683
g4
F20351.0
sg5
F8003.0
ssI107
(dp1684
g4
F16384.0
sg5
F6563.0
ssI109
(dp1685
g4
F12695.0
sg5
F11523.0
ssI111
(dp1686
g4
F142805.0
sg5
F117750.0
ssI113
(dp1687
g4
F78444.0
sg5
F68863.0
ssI115
(dp1688
g4
F52812.0
sg5
F36680.0
ssI117
(dp1689
g4
F24644.0
sg5
F16632.0
ssI119
(dp1690
g4
F126790.0
sg5
F114293.0
ssI121
(dp1691
g4
F20700.0
sg5
F10881.0
ssI123
(dp1692
g4
F7356.0
sg5
F3700.0
ssI125
(dp1693
g4
F7752.0
sg5
F4301.0
ssI127
(dp1694
g4
F8581.0
sg5
F4011.0
ssI129
(dp1695
g4
F8507.0
sg5
F3572.0
ssI131
(dp1696
g4
F9257.0
sg5
F6444.0
ssI133
(dp1697
g4
F23483.0
sg5
F12968.0
ssI135
(dp1698
g4
F15265.0
sg5
F8840.0
ssI137
(dp1699
g4
F18155.0
sg5
F9420.0
ssI139
(dp1700
g4
F8716.0
sg5
F3043.0
ssI141
(dp1701
g4
F29102.0
sg5
F15648.0
ssI143
(dp1702
g4
F73065.0
sg5
F73418.0
ssI145
(dp1703
g4
F11717.0
sg5
F6671.0
ssI147
(dp1704
g4
F11560.0
sg5
F5187.0
ssI149
(dp1705
g4
F10123.0
sg5
F4064.0
ssI151
(dp1706
g4
F2957.0
sg5
F1077.0
ssI153
(dp1707
g4
F2720.0
sg5
F2048.0
ssI155
(dp1708
g4
F3345.0
sg5
F2395.0
ssI157
(dp1709
g4
F17336.0
sg5
F9513.0
ssI159
(dp1710
g4
F10633.0
sg5
F3781.0
ssI161
(dp1711
g4
F53710.0
sg5
F65170.0
ssI163
(dp1712
g4
F99068.0
sg5
F128294.0
ssI165
(dp1713
g4
F13843.0
sg5
F7319.0
ssI167
(dp1714
g4
F101521.0
sg5
F80491.0
ssI169
(dp1715
g4
F4465.0
sg5
F2685.0
ssI171
(dp1716
g4
F3570.0
sg5
F1369.0
ssI173
(dp1717
g4
F15617.0
sg5
F4995.0
ssI175
(dp1718
g4
F3536.0
sg5
F1527.0
ssI177
(dp1719
g4
F22095.0
sg5
F14720.0
ssI179
(dp1720
g4
F76888.0
sg5
F41682.0
ssI181
(dp1721
g4
F10002.0
sg5
F6217.0
ssI183
(dp1722
g4
F36168.0
sg5
F20203.0
ssI185
(dp1723
g4
F7533.0
sg5
F2680.0
ssI187
(dp1724
g4
F8446.0
sg5
F6002.0
ssI189
(dp1725
g4
F9978.0
sg5
F3997.0
ssI191
(dp1726
g4
F12575.0
sg5
F2972.0
ssI193
(dp1727
g4
F9994.0
sg5
F3819.0
ssI195
(dp1728
g4
F24722.0
sg5
F22653.0
ssI197
(dp1729
g4
F253827.0
sg5
F293681.0
ssI199
(dp1730
g4
F37524.0
sg5
F21999.0
ssI201
(dp1731
g4
F109655.0
sg5
F102447.0
ssI203
(dp1732
g4
F26430.0
sg5
F10127.0
sssS'GA'
p1733
(dp1734
I0
(dp1735
g4
F3436602.0
sg5
F2781380.0
ssI1
(dp1736
g4
F10660.0
sg5
F2621.0
ssI3
(dp1737
g4
F3546.0
sg5
F1291.0
ssI5
(dp1738
g4
F6396.0
sg5
F1079.0
ssI7
(dp1739
g4
F1538.0
sg5
F1181.0
ssI9
(dp1740
g4
F15484.0
sg5
F14746.0
ssI11
(dp1741
g4
F11832.0
sg5
F1357.0
ssI13
(dp1742
g4
F41385.0
sg5
F12269.0
ssI15
(dp1743
g4
F57922.0
sg5
F15487.0
ssI17
(dp1744
g4
F7318.0
sg5
F3835.0
ssI19
(dp1745
g4
F10455.0
sg5
F1930.0
ssI21
(dp1746
g4
F46543.0
sg5
F63736.0
ssI23
(dp1747
g4
F7413.0
sg5
F2011.0
ssI25
(dp1748
g4
F10400.0
sg5
F1228.0
ssI27
(dp1749
g4
F7124.0
sg5
F4572.0
ssI29
(dp1750
g4
F20986.0
sg5
F7222.0
ssI31
(dp1751
g4
F29346.0
sg5
F16153.0
ssI33
(dp1752
g4
F8939.0
sg5
F8797.0
ssI35
(dp1753
g4
F13037.0
sg5
F4733.0
ssI37
(dp1754
g4
F1691.0
sg5
F2183.0
ssI39
(dp1755
g4
F23717.0
sg5
F11003.0
ssI43
(dp1756
g4
F5246.0
sg5
F1877.0
ssI45
(dp1757
g4
F58972.0
sg5
F23250.0
ssI47
(dp1758
g4
F39734.0
sg5
F8890.0
ssI49
(dp1759
g4
F5439.0
sg5
F1877.0
ssI51
(dp1760
g4
F91046.0
sg5
F108306.0
ssI53
(dp1761
g4
F1441.0
sg5
F1100.0
ssI55
(dp1762
g4
F12282.0
sg5
F3232.0
ssI57
(dp1763
g4
F160740.0
sg5
F45897.0
ssI59
(dp1764
g4
F28191.0
sg5
F54918.0
ssI61
(dp1765
g4
F1126.0
sg5
F1271.0
ssI63
(dp1766
g4
F25645.0
sg5
F143176.0
ssI65
(dp1767
g4
F3270.0
sg5
F1178.0
ssI67
(dp1768
g4
F321491.0
sg5
F292712.0
ssI69
(dp1769
g4
F18445.0
sg5
F7579.0
ssI71
(dp1770
g4
F19503.0
sg5
F6183.0
ssI73
(dp1771
g4
F85920.0
sg5
F34641.0
ssI75
(dp1772
g4
F8219.0
sg5
F3212.0
ssI77
(dp1773
g4
F84465.0
sg5
F30650.0
ssI79
(dp1774
g4
F7123.0
sg5
F2611.0
ssI81
(dp1775
g4
F9076.0
sg5
F5079.0
ssI83
(dp1776
g4
F9493.0
sg5
F1845.0
ssI85
(dp1777
g4
F19176.0
sg5
F2675.0
ssI87
(dp1778
g4
F11592.0
sg5
F7616.0
ssI89
(dp1779
g4
F113246.0
sg5
F446951.0
ssI91
(dp1780
g4
F9787.0
sg5
F3276.0
ssI93
(dp1781
g4
F3953.0
sg5
F3291.0
ssI95
(dp1782
g4
F21266.0
sg5
F43502.0
ssI97
(dp1783
g4
F49889.0
sg5
F59109.0
ssI99
(dp1784
g4
F5067.0
sg5
F4039.0
ssI101
(dp1785
g4
F1879.0
sg5
F302.0
ssI103
(dp1786
g4
F35245.0
sg5
F8900.0
ssI105
(dp1787
g4
F10205.0
sg5
F4630.0
ssI107
(dp1788
g4
F10387.0
sg5
F4404.0
ssI109
(dp1789
g4
F4799.0
sg5
F1982.0
ssI111
(dp1790
g4
F18457.0
sg5
F3695.0
ssI113
(dp1791
g4
F71372.0
sg5
F42834.0
ssI115
(dp1792
g4
F47457.0
sg5
F16911.0
ssI117
(dp1793
g4
F140589.0
sg5
F41564.0
ssI119
(dp1794
g4
F13542.0
sg5
F2356.0
ssI121
(dp1795
g4
F252211.0
sg5
F515770.0
ssI123
(dp1796
g4
F19966.0
sg5
F3744.0
ssI125
(dp1797
g4
F2336.0
sg5
F280.0
ssI127
(dp1798
g4
F42341.0
sg5
F21149.0
ssI129
(dp1799
g4
F29243.0
sg5
F6025.0
ssI131
(dp1800
g4
F11577.0
sg5
F5668.0
ssI133
(dp1801
g4
F11220.0
sg5
F5815.0
ssI135
(dp1802
g4
F300482.0
sg5
F305267.0
ssI137
(dp1803
g4
F25671.0
sg5
F4656.0
ssI139
(dp1804
g4
F101757.0
sg5
F29727.0
ssI141
(dp1805
g4
F1784.0
sg5
F4985.0
ssI143
(dp1806
g4
F18408.0
sg5
F2915.0
ssI145
(dp1807
g4
F23534.0
sg5
F7472.0
ssI147
(dp1808
g4
F13988.0
sg5
F4762.0
ssI149
(dp1809
g4
F6469.0
sg5
F1422.0
ssI151
(dp1810
g4
F90789.0
sg5
F93871.0
ssI153
(dp1811
g4
F70563.0
sg5
F41569.0
ssI155
(dp1812
g4
F5287.0
sg5
F1651.0
ssI157
(dp1813
g4
F42689.0
sg5
F8357.0
ssI159
(dp1814
g4
F8527.0
sg5
F2906.0
ssI161
(dp1815
g4
F7816.0
sg5
F1676.0
ssI163
(dp1816
g4
F6089.0
sg5
F6893.0
ssI165
(dp1817
g4
F3716.0
sg5
F2029.0
ssI167
(dp1818
g4
F4892.0
sg5
F2024.0
ssI169
(dp1819
g4
F16428.0
sg5
F7440.0
ssI171
(dp1820
g4
F10105.0
sg5
F4266.0
ssI173
(dp1821
g4
F3776.0
sg5
F1465.0
ssI175
(dp1822
g4
F24839.0
sg5
F12285.0
ssI177
(dp1823
g4
F20942.0
sg5
F6039.0
ssI179
(dp1824
g4
F12614.0
sg5
F17652.0
ssI181
(dp1825
g4
F5430.0
sg5
F2366.0
ssI183
(dp1826
g4
F5143.0
sg5
F2505.0
ssI185
(dp1827
g4
F41789.0
sg5
F27288.0
ssI187
(dp1828
g4
F18802.0
sg5
F4169.0
ssI189
(dp1829
g4
F10685.0
sg5
F6744.0
ssI191
(dp1830
g4
F6896.0
sg5
F4199.0
ssI193
(dp1831
g4
F3218.0
sg5
F4834.0
ssI195
(dp1832
g4
F18016.0
sg5
F4585.0
ssI197
(dp1833
g4
F3766.0
sg5
F2246.0
ssI199
(dp1834
g4
F10369.0
sg5
F6990.0
ssI201
(dp1835
g4
F3594.0
sg5
F1124.0
ssI205
(dp1836
g4
F8508.0
sg5
F6468.0
ssI207
(dp1837
g4
F17531.0
sg5
F6534.0
ssI209
(dp1838
g4
F5198.0
sg5
F1523.0
ssI211
(dp1839
g4
F13092.0
sg5
F4869.0
ssI213
(dp1840
g4
F19261.0
sg5
F3539.0
ssI215
(dp1841
g4
F54749.0
sg5
F73009.0
ssI217
(dp1842
g4
F41484.0
sg5
F41779.0
ssI219
(dp1843
g4
F26617.0
sg5
F9414.0
ssI221
(dp1844
g4
F9121.0
sg5
F3456.0
ssI223
(dp1845
g4
F87603.0
sg5
F33718.0
ssI225
(dp1846
g4
F10814.0
sg5
F9520.0
ssI227
(dp1847
g4
F22652.0
sg5
F3715.0
ssI229
(dp1848
g4
F12118.0
sg5
F1654.0
ssI231
(dp1849
g4
F14180.0
sg5
F2340.0
ssI233
(dp1850
g4
F21221.0
sg5
F5471.0
ssI235
(dp1851
g4
F4850.0
sg5
F1975.0
ssI237
(dp1852
g4
F12926.0
sg5
F5069.0
ssI239
(dp1853
g4
F1076.0
sg5
F843.0
ssI241
(dp1854
g4
F12264.0
sg5
F2698.0
ssI243
(dp1855
g4
F2562.0
sg5
F2871.0
ssI245
(dp1856
g4
F50325.0
sg5
F90840.0
ssI247
(dp1857
g4
F27334.0
sg5
F44387.0
ssI249
(dp1858
g4
F2917.0
sg5
F746.0
ssI251
(dp1859
g4
F6594.0
sg5
F4242.0
ssI253
(dp1860
g4
F4412.0
sg5
F2195.0
ssI255
(dp1861
g4
F30800.0
sg5
F17217.0
ssI257
(dp1862
g4
F14963.0
sg5
F3381.0
ssI259
(dp1863
g4
F1612.0
sg5
F2119.0
ssI261
(dp1864
g4
F10693.0
sg5
F10396.0
ssI263
(dp1865
g4
F2424.0
sg5
F3639.0
ssI265
(dp1866
g4
F690.0
sg5
F988.0
ssI267
(dp1867
g4
F10048.0
sg5
F3029.0
ssI269
(dp1868
g4
F4034.0
sg5
F2385.0
ssI271
(dp1869
g4
F4775.0
sg5
F2433.0
ssI273
(dp1870
g4
F3867.0
sg5
F4124.0
ssI275
(dp1871
g4
F22043.0
sg5
F13137.0
ssI277
(dp1872
g4
F17295.0
sg5
F6950.0
ssI279
(dp1873
g4
F12976.0
sg5
F4291.0
ssI281
(dp1874
g4
F10333.0
sg5
F2369.0
ssI283
(dp1875
g4
F3507.0
sg5
F1484.0
ssI285
(dp1876
g4
F30825.0
sg5
F17803.0
ssI287
(dp1877
g4
F4132.0
sg5
F2272.0
ssI289
(dp1878
g4
F4007.0
sg5
F3624.0
ssI291
(dp1879
g4
F19027.0
sg5
F3781.0
ssI293
(dp1880
g4
F14347.0
sg5
F6378.0
ssI295
(dp1881
g4
F36012.0
sg5
F7962.0
ssI297
(dp1882
g4
F60784.0
sg5
F15452.0
ssI299
(dp1883
g4
F16377.0
sg5
F6304.0
ssI301
(dp1884
g4
F1984.0
sg5
F2422.0
ssI303
(dp1885
g4
F8221.0
sg5
F7781.0
ssI305
(dp1886
g4
F15825.0
sg5
F3743.0
ssI307
(dp1887
g4
F1279.0
sg5
F857.0
ssI309
(dp1888
g4
F2725.0
sg5
F1191.0
ssI311
(dp1889
g4
F18955.0
sg5
F3210.0
ssI313
(dp1890
g4
F41297.0
sg5
F14679.0
ssI315
(dp1891
g4
F4132.0
sg5
F1521.0
ssI317
(dp1892
g4
F5072.0
sg5
F3367.0
ssI319
(dp1893
g4
F4597.0
sg5
F3508.0
ssI321
(dp1894
g4
F12019.0
sg5
F3849.0
sssS'IN'
p1895
(dp1896
I0
(dp1897
g4
F4257402.0
sg5
F3436146.0
ssI1
(dp1898
g4
F26470.0
sg5
F10912.0
ssI3
(dp1899
g4
F243365.0
sg5
F176745.0
ssI5
(dp1900
g4
F58745.0
sg5
F33064.0
ssI7
(dp1901
g4
F7213.0
sg5
F3193.0
ssI9
(dp1902
g4
F8816.0
sg5
F4806.0
ssI11
(dp1903
g4
F58889.0
sg5
F32632.0
ssI13
(dp1904
g4
F14117.0
sg5
F8626.0
ssI15
(dp1905
g4
F17166.0
sg5
F7334.0
ssI17
(dp1906
g4
F26055.0
sg5
F14345.0
ssI19
(dp1907
g4
F86096.0
sg5
F60458.0
ssI21
(dp1908
g4
F21424.0
sg5
F10545.0
ssI23
(dp1909
g4
F22945.0
sg5
F10632.0
ssI25
(dp1910
g4
F7890.0
sg5
F5137.0
ssI27
(dp1911
g4
F22101.0
sg5
F8980.0
ssI29
(dp1912
g4
F52000.0
sg5
F16069.0
ssI31
(dp1913
g4
F23018.0
sg5
F8434.0
ssI33
(dp1914
g4
F32784.0
sg5
F14308.0
ssI35
(dp1915
g4
F66468.0
sg5
F60751.0
ssI37
(dp1916
g4
F35215.0
sg5
F21252.0
ssI39
(dp1917
g4
F121151.0
sg5
F67712.0
ssI41
(dp1918
g4
F17926.0
sg5
F8791.0
ssI43
(dp1919
g4
F62932.0
sg5
F44607.0
ssI45
(dp1920
g4
F15433.0
sg5
F5951.0
ssI47
(dp1921
g4
F24378.0
sg5
F7285.0
ssI49
(dp1922
g4
F16228.0
sg5
F7730.0
ssI51
(dp1923
g4
F29498.0
sg5
F15206.0
ssI53
(dp1924
g4
F47219.0
sg5
F24671.0
ssI55
(dp1925
g4
F24973.0
sg5
F14600.0
ssI57
(dp1926
g4
F270220.0
sg5
F173007.0
ssI59
(dp1927
g4
F70910.0
sg5
F32019.0
ssI61
(dp1928
g4
F36108.0
sg5
F17643.0
ssI63
(dp1929
g4
F140234.0
sg5
F74194.0
ssI65
(dp1930
g4
F36328.0
sg5
F19590.0
ssI67
(dp1931
g4
F63980.0
sg5
F41338.0
ssI69
(dp1932
g4
F31682.0
sg5
F12992.0
ssI71
(dp1933
g4
F35443.0
sg5
F15082.0
ssI73
(dp1934
g4
F26024.0
sg5
F12165.0
ssI75
(dp1935
g4
F14829.0
sg5
F7545.0
ssI77
(dp1936
g4
F23570.0
sg5
F15119.0
ssI79
(dp1937
g4
F22258.0
sg5
F9673.0
ssI81
(dp1938
g4
F131238.0
sg5
F59478.0
ssI83
(dp1939
g4
F25404.0
sg5
F18872.0
ssI85
(dp1940
g4
F68375.0
sg5
F22790.0
ssI87
(dp1941
g4
F19562.0
sg5
F7813.0
ssI89
(dp1942
g4
F208158.0
sg5
F366362.0
ssI91
(dp1943
g4
F60713.0
sg5
F66091.0
ssI93
(dp1944
g4
F38042.0
sg5
F16105.0
ssI95
(dp1945
g4
F88004.0
sg5
F64817.0
ssI97
(dp1946
g4
F385333.0
sg5
F643936.0
ssI99
(dp1947
g4
F33423.0
sg5
F17792.0
ssI101
(dp1948
g4
F9454.0
sg5
F4299.0
ssI103
(dp1949
g4
F26522.0
sg5
F11198.0
ssI105
(dp1950
g4
F61387.0
sg5
F104684.0
ssI107
(dp1951
g4
F30270.0
sg5
F12955.0
ssI109
(dp1952
g4
F65287.0
sg5
F23210.0
ssI111
(dp1953
g4
F11226.0
sg5
F5254.0
ssI113
(dp1954
g4
F33182.0
sg5
F14412.0
ssI115
(dp1955
g4
F5871.0
sg5
F2535.0
ssI117
(dp1956
g4
F15759.0
sg5
F7812.0
ssI119
(dp1957
g4
F16565.0
sg5
F7661.0
ssI121
(dp1958
g4
F12586.0
sg5
F6388.0
ssI123
(dp1959
g4
F11686.0
sg5
F11274.0
ssI125
(dp1960
g4
F10916.0
sg5
F6196.0
ssI127
(dp1961
g4
F107040.0
sg5
F111649.0
ssI129
(dp1962
g4
F22635.0
sg5
F13382.0
ssI131
(dp1963
g4
F9964.0
sg5
F5255.0
ssI133
(dp1964
g4
F29241.0
sg5
F12724.0
ssI135
(dp1965
g4
F20017.0
sg5
F9297.0
ssI137
(dp1966
g4
F27981.0
sg5
F9193.0
ssI139
(dp1967
g4
F14157.0
sg5
F6203.0
ssI141
(dp1968
g4
F148209.0
sg5
F166824.0
ssI143
(dp1969
g4
F15989.0
sg5
F10235.0
ssI145
(dp1970
g4
F34983.0
sg5
F15958.0
ssI147
(dp1971
g4
F17548.0
sg5
F10851.0
ssI149
(dp1972
g4
F15956.0
sg5
F9835.0
ssI151
(dp1973
g4
F28372.0
sg5
F13198.0
ssI153
(dp1974
g4
F13925.0
sg5
F10689.0
ssI155
(dp1975
g4
F6934.0
sg5
F3551.0
ssI157
(dp1976
g4
F90813.0
sg5
F86221.0
ssI159
(dp1977
g4
F15061.0
sg5
F6339.0
ssI161
(dp1978
g4
F6876.0
sg5
F2552.0
ssI163
(dp1979
g4
F115262.0
sg5
F92316.0
ssI165
(dp1980
g4
F11033.0
sg5
F8617.0
ssI167
(dp1981
g4
F55258.0
sg5
F58769.0
ssI169
(dp1982
g4
F27050.0
sg5
F11205.0
ssI171
(dp1983
g4
F8023.0
sg5
F3258.0
ssI173
(dp1984
g4
F53806.0
sg5
F31612.0
ssI175
(dp1985
g4
F22691.0
sg5
F9999.0
ssI177
(dp1986
g4
F44203.0
sg5
F27149.0
ssI179
(dp1987
g4
F27565.0
sg5
F9999.0
ssI181
(dp1988
g4
F18892.0
sg5
F9326.0
ssI183
(dp1989
g4
F31192.0
sg5
F12812.0
sssS'IA'
p1990
(dp1991
I0
(dp1992
g4
F1734188.0
sg5
F1218021.0
ssI1
(dp1993
g4
F5158.0
sg5
F2017.0
ssI3
(dp1994
g4
F2907.0
sg5
F1019.0
ssI5
(dp1995
g4
F8522.0
sg5
F4498.0
ssI7
(dp1996
g4
F8151.0
sg5
F3503.0
ssI9
(dp1997
g4
F4456.0
sg5
F1926.0
ssI11
(dp1998
g4
F17570.0
sg5
F8476.0
ssI13
(dp1999
g4
F61137.0
sg5
F59067.0
ssI15
(dp2000
g4
F16022.0
sg5
F10317.0
ssI17
(dp2001
g4
F15771.0
sg5
F9700.0
ssI19
(dp2002
g4
F11880.0
sg5
F7275.0
ssI21
(dp2003
g4
F10255.0
sg5
F5229.0
ssI23
(dp2004
g4
F10347.0
sg5
F3943.0
ssI25
(dp2005
g4
F7260.0
sg5
F2549.0
ssI27
(dp2006
g4
F13876.0
sg5
F6016.0
ssI29
(dp2007
g4
F9829.0
sg5
F3498.0
ssI31
(dp2008
g4
F11352.0
sg5
F6471.0
ssI33
(dp2009
g4
F24954.0
sg5
F17989.0
ssI35
(dp2010
g4
F8852.0
sg5
F3004.0
ssI37
(dp2011
g4
F7912.0
sg5
F4219.0
ssI39
(dp2012
g4
F5603.0
sg5
F2734.0
ssI41
(dp2013
g4
F12121.0
sg5
F4138.0
ssI43
(dp2014
g4
F11151.0
sg5
F6014.0
ssI45
(dp2015
g4
F24044.0
sg5
F18914.0
ssI47
(dp2016
g4
F9271.0
sg5
F3755.0
ssI49
(dp2017
g4
F43602.0
sg5
F27505.0
ssI51
(dp2018
g4
F5469.0
sg5
F1946.0
ssI53
(dp2019
g4
F4784.0
sg5
F2238.0
ssI55
(dp2020
g4
F12127.0
sg5
F5324.0
ssI57
(dp2021
g4
F19774.0
sg5
F15736.0
ssI59
(dp2022
g4
F14220.0
sg5
F5467.0
ssI61
(dp2023
g4
F50642.0
sg5
F42003.0
ssI63
(dp2024
g4
F6459.0
sg5
F2526.0
ssI65
(dp2025
g4
F11970.0
sg5
F6710.0
ssI67
(dp2026
g4
F9316.0
sg5
F5900.0
ssI69
(dp2027
g4
F6691.0
sg5
F2659.0
ssI71
(dp2028
g4
F4975.0
sg5
F1692.0
ssI73
(dp2029
g4
F6013.0
sg5
F3030.0
ssI75
(dp2030
g4
F9762.0
sg5
F3212.0
ssI77
(dp2031
g4
F7581.0
sg5
F3117.0
ssI79
(dp2032
g4
F9578.0
sg5
F4878.0
ssI81
(dp2033
g4
F8195.0
sg5
F2900.0
ssI83
(dp2034
g4
F11043.0
sg5
F5047.0
ssI85
(dp2035
g4
F9986.0
sg5
F3908.0
ssI87
(dp2036
g4
F12043.0
sg5
F5428.0
ssI89
(dp2037
g4
F5468.0
sg5
F3131.0
ssI91
(dp2038
g4
F7420.0
sg5
F2250.0
ssI93
(dp2039
g4
F5522.0
sg5
F1382.0
ssI95
(dp2040
g4
F11241.0
sg5
F5500.0
ssI97
(dp2041
g4
F12102.0
sg5
F7286.0
ssI99
(dp2042
g4
F22242.0
sg5
F13277.0
ssI101
(dp2043
g4
F7822.0
sg5
F7142.0
ssI103
(dp2044
g4
F49826.0
sg5
F92411.0
ssI105
(dp2045
g4
F12262.0
sg5
F6837.0
ssI107
(dp2046
g4
F6892.0
sg5
F2249.0
ssI109
(dp2047
g4
F11649.0
sg5
F4762.0
ssI111
(dp2048
g4
F17164.0
sg5
F12551.0
ssI113
(dp2049
g4
F110639.0
sg5
F105717.0
ssI115
(dp2050
g4
F6350.0
sg5
F3068.0
ssI117
(dp2051
g4
F5934.0
sg5
F2302.0
ssI119
(dp2052
g4
F10510.0
sg5
F1675.0
ssI121
(dp2053
g4
F11227.0
sg5
F4864.0
ssI123
(dp2054
g4
F15186.0
sg5
F4897.0
ssI125
(dp2055
g4
F23324.0
sg5
F10020.0
ssI127
(dp2056
g4
F19535.0
sg5
F14178.0
ssI129
(dp2057
g4
F10317.0
sg5
F3815.0
ssI131
(dp2058
g4
F6848.0
sg5
F3404.0
ssI133
(dp2059
g4
F6425.0
sg5
F2291.0
ssI135
(dp2060
g4
F5089.0
sg5
F2330.0
ssI137
(dp2061
g4
F7073.0
sg5
F2377.0
ssI139
(dp2062
g4
F20657.0
sg5
F15180.0
ssI141
(dp2063
g4
F11792.0
sg5
F2374.0
ssI143
(dp2064
g4
F5126.0
sg5
F1007.0
ssI145
(dp2065
g4
F10064.0
sg5
F3257.0
ssI147
(dp2066
g4
F6454.0
sg5
F2501.0
ssI149
(dp2067
g4
F19976.0
sg5
F5171.0
ssI151
(dp2068
g4
F5573.0
sg5
F1746.0
ssI153
(dp2069
g4
F211483.0
sg5
F219875.0
ssI155
(dp2070
g4
F50150.0
sg5
F28276.0
ssI157
(dp2071
g4
F10542.0
sg5
F7989.0
ssI159
(dp2072
g4
F3807.0
sg5
F1369.0
ssI161
(dp2073
g4
F7648.0
sg5
F2282.0
ssI163
(dp2074
g4
F85414.0
sg5
F74677.0
ssI165
(dp2075
g4
F8796.0
sg5
F3048.0
ssI167
(dp2076
g4
F30637.0
sg5
F3986.0
ssI169
(dp2077
g4
F44131.0
sg5
F46019.0
ssI171
(dp2078
g4
F10499.0
sg5
F5962.0
ssI173
(dp2079
g4
F4325.0
sg5
F1365.0
ssI175
(dp2080
g4
F7429.0
sg5
F3544.0
ssI177
(dp2081
g4
F5138.0
sg5
F1605.0
ssI179
(dp2082
g4
F17395.0
sg5
F10953.0
ssI181
(dp2083
g4
F31803.0
sg5
F19040.0
ssI183
(dp2084
g4
F13416.0
sg5
F6996.0
ssI185
(dp2085
g4
F4264.0
sg5
F1364.0
ssI187
(dp2086
g4
F21083.0
sg5
F11681.0
ssI189
(dp2087
g4
F7361.0
sg5
F3503.0
ssI191
(dp2088
g4
F11663.0
sg5
F9662.0
ssI193
(dp2089
g4
F51687.0
sg5
F29919.0
ssI195
(dp2090
g4
F5205.0
sg5
F2765.0
ssI197
(dp2091
g4
F7987.0
sg5
F3435.0
sssS'OK'
p2092
(dp2093
I149
(dp2094
g4
F7733.0
sg5
I0
ssI1
(dp2095
g4
F9298.0
sg5
I0
ssI3
(dp2096
g4
F3911.0
sg5
I0
ssI5
(dp2097
g4
F7495.0
sg5
I0
ssI0
(dp2098
g4
F1760570.0
sg5
F125315.0
ssI7
(dp2099
g4
F3921.0
sg5
I0
ssI145
(dp2100
g4
F45970.0
sg5
I0
ssI9
(dp2101
g4
F12573.0
sg5
I0
ssI11
(dp2102
g4
F5925.0
sg5
I0
ssI13
(dp2103
g4
F19990.0
sg5
I0
ssI15
(dp2104
g4
F13358.0
sg5
I0
ssI141
(dp2105
g4
F3885.0
sg5
I0
ssI17
(dp2106
g4
F82079.0
sg5
I0
ssI19
(dp2107
g4
F26686.0
sg5
I0
ssI21
(dp2108
g4
F19889.0
sg5
I0
ssI23
(dp2109
g4
F7893.0
sg5
I0
ssI137
(dp2110
g4
F28251.0
sg5
I0
ssI25
(dp2111
g4
F1865.0
sg5
I0
ssI27
(dp2112
g4
F130195.0
sg5
I0
ssI29
(dp2113
g4
F3412.0
sg5
I0
ssI31
(dp2114
g4
F39145.0
sg5
I0
ssI133
(dp2115
g4
F11507.0
sg5
I0
ssI33
(dp2116
g4
F4065.0
sg5
I0
ssI35
(dp2117
g4
F8470.0
sg5
I0
ssI37
(dp2118
g4
F43010.0
sg5
I0
ssI39
(dp2119
g4
F16129.0
sg5
I0
ssI129
(dp2120
g4
F3082.0
sg5
I0
ssI41
(dp2121
g4
F23157.0
sg5
I0
ssI43
(dp2122
g4
F3941.0
sg5
I0
ssI45
(dp2123
g4
F3224.0
sg5
I0
ssI47
(dp2124
g4
F32765.0
sg5
I0
ssI49
(dp2125
g4
F16404.0
sg5
I0
ssI51
(dp2126
g4
F34937.0
sg5
I0
ssI53
(dp2127
g4
F3690.0
sg5
I0
ssI55
(dp2128
g4
F2948.0
sg5
I0
ssI57
(dp2129
g4
F1450.0
sg5
I0
ssI59
(dp2130
g4
F2651.0
sg5
I0
ssI151
(dp2131
g4
F5983.0
sg5
I0
ssI61
(dp2132
g4
F7063.0
sg5
I0
ssI63
(dp2133
g4
F6765.0
sg5
I0
ssI65
(dp2134
g4
F12033.0
sg5
I0
ssI67
(dp2135
g4
F3613.0
sg5
I0
ssI147
(dp2136
g4
F32243.0
sg5
I0
ssI69
(dp2137
g4
F5706.0
sg5
I0
ssI71
(dp2138
g4
F24474.0
sg5
I0
ssI73
(dp2139
g4
F10470.0
sg5
I0
ssI75
(dp2140
g4
F5306.0
sg5
I0
ssI143
(dp2141
g4
F298120.0
sg5
I0
ssI77
(dp2142
g4
F5892.0
sg5
I0
ssI79
(dp2143
g4
F24942.0
sg5
I0
ssI81
(dp2144
g4
F22037.0
sg5
I0
ssI83
(dp2145
g4
F27828.0
sg5
I0
ssI139
(dp2146
g4
F9135.0
sg5
I0
ssI85
(dp2147
g4
F5518.0
sg5
I0
ssI87
(dp2148
g4
F26569.0
sg5
I0
ssI89
(dp2149
g4
F15964.0
sg5
I0
ssI91
(dp2150
g4
F10796.0
sg5
I0
ssI135
(dp2151
g4
F20346.0
sg5
I0
ssI93
(dp2152
g4
F5964.0
sg5
I0
ssI95
(dp2153
g4
F8024.0
sg5
I0
ssI97
(dp2154
g4
F22852.0
sg5
I0
ssI99
(dp2155
g4
F8334.0
sg5
I0
ssI131
(dp2156
g4
F62069.0
sg5
I0
ssI101
(dp2157
g4
F30159.0
sg5
I0
ssI103
(dp2158
g4
F7518.0
sg5
I0
ssI105
(dp2159
g4
F6436.0
sg5
I0
ssI107
(dp2160
g4
F5579.0
sg5
I0
ssI109
(dp2161
g4
F301757.0
sg5
I0
ssI111
(dp2162
g4
F17844.0
sg5
I0
ssI113
(dp2163
g4
F25013.0
sg5
I0
ssI115
(dp2164
g4
F14594.0
sg5
I0
ssI117
(dp2165
g4
F9365.0
sg5
I0
ssI119
(dp2166
g4
F34912.0
sg5
I0
ssI153
(dp2167
g4
F12713.0
sg5
I0
ssI121
(dp2168
g4
F24619.0
sg5
I0
ssI123
(dp2169
g4
F20579.0
sg5
I0
ssI125
(dp2170
g4
F36982.0
sg5
I0
ssI127
(dp2171
g4
F6642.0
sg5
I0
sssS'AZ'
p2172
(dp2173
I0
(dp2174
g4
F1955384.0
sg5
F1441596.0
ssI1
(dp2175
g4
F10350.0
sg5
F24677.0
ssI3
(dp2176
g4
F49407.0
sg5
F30817.0
ssI5
(dp2177
g4
F35083.0
sg5
F50141.0
ssI7
(dp2178
g4
F23790.0
sg5
F12313.0
ssI9
(dp2179
g4
F15503.0
sg5
F6526.0
ssI11
(dp2180
g4
F3676.0
sg5
F2281.0
ssI12
(dp2181
g4
F6473.0
sg5
F2679.0
ssI13
(dp2182
g4
F1135599.0
sg5
F935265.0
ssI15
(dp2183
g4
F95515.0
sg5
F32524.0
ssI17
(dp2184
g4
F34681.0
sg5
F31786.0
ssI19
(dp2185
g4
F291962.0
sg5
F349616.0
ssI21
(dp2186
g4
F87884.0
sg5
F57948.0
ssI23
(dp2187
g4
F6208.0
sg5
F14287.0
ssI25
(dp2188
g4
F113715.0
sg5
F58317.0
ssI27
(dp2189
g4
F42161.0
sg5
F33065.0
sssS'ID'
p2190
(dp2191
I0
(dp2192
g4
F892626.0
sg5
F396389.0
ssI1
(dp2193
g4
F198398.0
sg5
F148523.0
ssI3
(dp2194
g4
F3019.0
sg5
F874.0
ssI5
(dp2195
g4
F37063.0
sg5
F21927.0
ssI7
(dp2196
g4
F4618.0
sg5
F546.0
ssI9
(dp2197
g4
F6204.0
sg5
F1526.0
ssI11
(dp2198
g4
F23021.0
sg5
F5921.0
ssI13
(dp2199
g4
F7902.0
sg5
F12377.0
ssI15
(dp2200
g4
F5170.0
sg5
F1637.0
ssI17
(dp2201
g4
F20988.0
sg5
F10214.0
ssI19
(dp2202
g4
F57792.0
sg5
F18088.0
ssI21
(dp2203
g4
F7750.0
sg5
F1853.0
ssI23
(dp2204
g4
F1862.0
sg5
F345.0
ssI25
(dp2205
g4
F824.0
sg5
F236.0
ssI27
(dp2206
g4
F96237.0
sg5
F33491.0
ssI29
(dp2207
g4
F4725.0
sg5
F621.0
ssI31
(dp2208
g4
F12367.0
sg5
F2047.0
ssI33
(dp2209
g4
F428.0
sg5
F76.0
ssI35
(dp2210
g4
F5717.0
sg5
F1415.0
ssI37
(dp2211
g4
F3470.0
sg5
F856.0
ssI39
(dp2212
g4
F11875.0
sg5
F3566.0
ssI41
(dp2213
g4
F8583.0
sg5
F826.0
ssI43
(dp2214
g4
F8613.0
sg5
F1343.0
ssI45
(dp2215
g4
F11759.0
sg5
F2607.0
ssI47
(dp2216
g4
F7577.0
sg5
F1888.0
ssI49
(dp2217
g4
F12713.0
sg5
F2453.0
ssI51
(dp2218
g4
F17556.0
sg5
F2172.0
ssI53
(dp2219
g4
F15107.0
sg5
F4133.0
ssI55
(dp2220
g4
F92085.0
sg5
F31629.0
ssI57
(dp2221
g4
F16872.0
sg5
F16142.0
ssI59
(dp2222
g4
F6024.0
sg5
F1467.0
ssI61
(dp2223
g4
F2441.0
sg5
F527.0
ssI63
(dp2224
g4
F2447.0
sg5
F714.0
ssI65
(dp2225
g4
F21767.0
sg5
F2674.0
ssI67
(dp2226
g4
F9954.0
sg5
F2275.0
ssI69
(dp2227
g4
F22887.0
sg5
F9449.0
ssI71
(dp2228
g4
F3250.0
sg5
F390.0
ssI73
(dp2229
g4
F5961.0
sg5
F1172.0
ssI75
(dp2230
g4
F8648.0
sg5
F1844.0
ssI77
(dp2231
g4
F3608.0
sg5
F1385.0
ssI79
(dp2232
g4
F6760.0
sg5
F2861.0
ssI81
(dp2233
g4
F4814.0
sg5
F4310.0
ssI83
(dp2234
g4
F43076.0
sg5
F13967.0
ssI85
(dp2235
g4
F6108.0
sg5
F3796.0
ssI87
(dp2236
g4
F6501.0
sg5
F1618.0
sssS'CT'
p2237
(dp2238
I0
(dp2239
g4
F1057274.0
sg5
F1829243.0
ssI1
(dp2240
g4
F249310.0
sg5
F373697.0
ssI3
(dp2241
g4
F266101.0
sg5
F479828.0
ssI5
(dp2242
g4
F97230.0
sg5
F89258.0
ssI7
(dp2243
g4
F68160.0
sg5
F97516.0
ssI9
(dp2244
g4
F275669.0
sg5
F432232.0
ssI11
(dp2245
g4
F95264.0
sg5
F138220.0
ssI13
(dp2246
g4
F61968.0
sg5
F83813.0
ssI15
(dp2247
g4
F44269.0
sg5
F50733.0
sssS'ME'
p2248
(dp2249
I0
(dp2250
g4
F350028.0
sg5
F377721.0
ssI1
(dp2251
g4
I0
sg5
F21640.0
ssI3
(dp2252
g4
I0
sg5
F13085.0
ssI5
(dp2253
g4
I0
sg5
F101235.0
ssI7
(dp2254
g4
I0
sg5
F6601.0
ssI9
(dp2255
g4
I0
sg5
F16100.0
ssI11
(dp2256
g4
I0
sg5
F29296.0
ssI13
(dp2257
g4
I0
sg5
F12440.0
ssI15
(dp2258
g4
I0
sg5
F10241.0
ssI17
(dp2259
g4
I0
sg5
F12172.0
ssI19
(dp2260
g4
I0
sg5
F31850.0
ssI21
(dp2261
g4
I0
sg5
F3050.0
ssI23
(dp2262
g4
I0
sg5
F10679.0
ssI25
(dp2263
g4
I0
sg5
F8938.0
ssI27
(dp2264
g4
I0
sg5
F10442.0
ssI29
(dp2265
g4
I0
sg5
F6358.0
ssI31
(dp2266
g4
I0
sg5
F55828.0
sssS'MD'
p2267
(dp2268
I0
(dp2269
g4
F1789870.0
sg5
F2962966.0
ssI1
(dp2270
g4
F37018.0
sg5
F15214.0
ssI3
(dp2271
g4
F234269.0
sg5
F232496.0
ssI5
(dp2272
g4
F266855.0
sg5
F378478.0
ssI9
(dp2273
g4
F48547.0
sg5
F33763.0
ssI11
(dp2274
g4
F17559.0
sg5
F8053.0
ssI13
(dp2275
g4
F113133.0
sg5
F49729.0
ssI15
(dp2276
g4
F53722.0
sg5
F26515.0
ssI17
(dp2277
g4
F48201.0
sg5
F91897.0
ssI19
(dp2278
g4
F15289.0
sg5
F11822.0
ssI21
(dp2279
g4
F113904.0
sg5
F104542.0
ssI23
(dp2280
g4
F19844.0
sg5
F4654.0
ssI25
(dp2281
g4
F150824.0
sg5
F88561.0
ssI27
(dp2282
g4
F97369.0
sg5
F183430.0
ssI29
(dp2283
g4
F9239.0
sg5
F8498.0
ssI31
(dp2284
g4
F174951.0
sg5
F617653.0
ssI33
(dp2285
g4
F59741.0
sg5
F619619.0
ssI35
(dp2286
g4
F32389.0
sg5
F15150.0
ssI37
(dp2287
g4
F53284.0
sg5
F32124.0
ssI39
(dp2288
g4
F9950.0
sg5
F7094.0
ssI41
(dp2289
g4
F20310.0
sg5
F16073.0
ssI43
(dp2290
g4
F74154.0
sg5
F40615.0
ssI45
(dp2291
g4
F41545.0
sg5
F33019.0
ssI47
(dp2292
g4
F31372.0
sg5
F17917.0
ssI510
(dp2293
g4
F49079.0
sg5
F349880.0
sssS'MA'
p2294
(dp2295
I0
(dp2296
g4
F448117.0
sg5
F1205638.0
ssI1
(dp2297
g4
F53842.0
sg5
F71632.0
ssI3
(dp2298
g4
F16799.0
sg5
F43540.0
ssI5
(dp2299
g4
F104775.0
sg5
F127619.0
ssI7
(dp2300
g4
F2474.0
sg5
F8338.0
ssI9
(dp2301
g4
F135405.0
sg5
F220027.0
ssI11
(dp2302
g4
F10327.0
sg5
F24369.0
ssI13
(dp2303
g4
F77682.0
sg5
F109978.0
ssI15
(dp2304
g4
F22089.0
sg5
F54572.0
ssI17
(dp2305
g4
F216163.0
sg5
F508919.0
ssI19
(dp2306
g4
F1892.0
sg5
F4144.0
ssI21
(dp2307
g4
F119171.0
sg5
F219129.0
ssI23
(dp2308
g4
F114722.0
sg5
F133828.0
ssI25
(dp2309
g4
F50042.0
sg5
F241212.0
ssI27
(dp2310
g4
F157138.0
sg5
F197126.0
sssS'OH'
p2311
(dp2312
I0
(dp2313
g4
F5973750.0
sg5
F4015937.0
ssI1
(dp2314
g4
F16746.0
sg5
F4423.0
ssI3
(dp2315
g4
F61297.0
sg5
F23308.0
ssI5
(dp2316
g4
F34285.0
sg5
F10648.0
ssI7
(dp2317
g4
F45723.0
sg5
F28891.0
ssI9
(dp2318
g4
F21550.0
sg5
F29946.0
ssI11
(dp2319
g4
F37067.0
sg5
F6752.0
ssI13
(dp2320
g4
F40152.0
sg5
F17776.0
ssI15
(dp2321
g4
F28778.0
sg5
F7688.0
ssI17
(dp2322
g4
F219487.0
sg5
F100406.0
ssI19
(dp2323
g4
F17939.0
sg5
F5922.0
ssI21
(dp2324
g4
F25128.0
sg5
F8159.0
ssI23
(dp2325
g4
F73053.0
sg5
F40468.0
ssI25
(dp2326
g4
F138969.0
sg5
F44679.0
ssI27
(dp2327
g4
F27408.0
sg5
F7161.0
ssI29
(dp2328
g4
F61027.0
sg5
F23688.0
ssI31
(dp2329
g4
F20944.0
sg5
F7357.0
ssI33
(dp2330
g4
F26687.0
sg5
F8519.0
ssI35
(dp2331
g4
F397031.0
sg5
F700112.0
ssI37
(dp2332
g4
F39922.0
sg5
F7827.0
ssI39
(dp2333
g4
F23189.0
sg5
F10094.0
ssI41
(dp2334
g4
F123225.0
sg5
F68447.0
ssI43
(dp2335
g4
F40236.0
sg5
F28973.0
ssI45
(dp2336
g4
F89631.0
sg5
F44597.0
ssI47
(dp2337
g4
F15651.0
sg5
F5035.0
ssI49
(dp2338
g4
F436349.0
sg5
F615242.0
ssI51
(dp2339
g4
F27751.0
sg5
F11097.0
ssI53
(dp2340
g4
F17999.0
sg5
F5976.0
ssI55
(dp2341
g4
F62676.0
sg5
F30325.0
ssI57
(dp2342
g4
F101940.0
sg5
F49685.0
ssI59
(dp2343
g4
F22560.0
sg5
F8034.0
ssI61
(dp2344
g4
F381656.0
sg5
F371299.0
ssI63
(dp2345
g4
F49291.0
sg5
F17019.0
ssI65
(dp2346
g4
F17239.0
sg5
F5317.0
ssI67
(dp2347
g4
F9740.0
sg5
F3450.0
ssI69
(dp2348
g4
F18967.0
sg5
F6721.0
ssI71
(dp2349
g4
F25882.0
sg5
F6632.0
ssI73
(dp2350
g4
F16328.0
sg5
F7396.0
ssI75
(dp2351
g4
F17300.0
sg5
F3307.0
ssI77
(dp2352
g4
F32147.0
sg5
F13049.0
ssI79
(dp2353
g4
F18667.0
sg5
F6580.0
ssI81
(dp2354
g4
F39284.0
sg5
F19653.0
ssI83
(dp2355
g4
F37769.0
sg5
F14976.0
ssI85
(dp2356
g4
F129436.0
sg5
F81498.0
ssI87
(dp2357
g4
F34261.0
sg5
F14926.0
ssI89
(dp2358
g4
F101944.0
sg5
F48792.0
ssI91
(dp2359
g4
F32003.0
sg5
F7989.0
ssI93
(dp2360
g4
F137434.0
sg5
F119252.0
ssI95
(dp2361
g4
F160368.0
sg5
F199716.0
ssI97
(dp2362
g4
F23357.0
sg5
F8452.0
ssI99
(dp2363
g4
F107670.0
sg5
F106342.0
ssI101
(dp2364
g4
F33276.0
sg5
F14629.0
ssI103
(dp2365
g4
F111656.0
sg5
F56822.0
ssI105
(dp2366
g4
F12976.0
sg5
F4737.0
ssI107
(dp2367
g4
F34738.0
sg5
F6192.0
ssI109
(dp2368
g4
F76285.0
sg5
F21788.0
ssI111
(dp2369
g4
F8704.0
sg5
F3892.0
ssI113
(dp2370
g4
F261933.0
sg5
F211997.0
ssI115
(dp2371
g4
F8547.0
sg5
F3370.0
ssI117
(dp2372
g4
F23467.0
sg5
F7113.0
ssI119
(dp2373
g4
F49095.0
sg5
F19610.0
ssI121
(dp2374
g4
F8612.0
sg5
F2400.0
ssI123
(dp2375
g4
F26237.0
sg5
F14610.0
ssI125
(dp2376
g4
F11984.0
sg5
F4606.0
ssI127
(dp2377
g4
F19783.0
sg5
F8038.0
ssI129
(dp2378
g4
F33316.0
sg5
F12050.0
ssI131
(dp2379
g4
F14827.0
sg5
F7164.0
ssI133
(dp2380
g4
F79370.0
sg5
F58122.0
ssI135
(dp2381
g4
F31237.0
sg5
F7739.0
ssI137
(dp2382
g4
F29790.0
sg5
F5355.0
ssI139
(dp2383
g4
F71465.0
sg5
F30247.0
ssI141
(dp2384
g4
F36064.0
sg5
F18873.0
ssI143
(dp2385
g4
F33848.0
sg5
F17285.0
ssI145
(dp2386
g4
F38436.0
sg5
F18707.0
ssI147
(dp2387
g4
F30403.0
sg5
F13231.0
ssI149
(dp2388
g4
F37098.0
sg5
F7197.0
ssI151
(dp2389
g4
F198455.0
sg5
F123528.0
ssI153
(dp2390
g4
F230080.0
sg5
F238729.0
ssI155
(dp2391
g4
F97649.0
sg5
F79832.0
ssI157
(dp2392
g4
F52427.0
sg5
F22729.0
ssI159
(dp2393
g4
F36960.0
sg5
F13359.0
ssI161
(dp2394
g4
F19993.0
sg5
F5351.0
ssI163
(dp2395
g4
F7208.0
sg5
F2849.0
ssI165
(dp2396
g4
F160085.0
sg5
F56323.0
ssI167
(dp2397
g4
F37548.0
sg5
F17232.0
ssI169
(dp2398
g4
F64599.0
sg5
F27052.0
ssI171
(dp2399
g4
F23723.0
sg5
F7903.0
ssI173
(dp2400
g4
F68480.0
sg5
F48034.0
ssI175
(dp2401
g4
F14954.0
sg5
F4578.0
sssS'UT'
p2402
(dp2403
I0
(dp2404
g4
F912335.0
sg5
F328489.0
ssI1
(dp2405
g4
F3789.0
sg5
F548.0
ssI3
(dp2406
g4
F23921.0
sg5
F3623.0
ssI5
(dp2407
g4
F31989.0
sg5
F10624.0
ssI7
(dp2408
g4
F10424.0
sg5
F3501.0
ssI9
(dp2409
g4
F670.0
sg5
F170.0
ssI11
(dp2410
g4
F102047.0
sg5
F38546.0
ssI13
(dp2411
g4
F11290.0
sg5
F1116.0
ssI15
(dp2412
g4
F0.0
sg5
F0.0
ssI17
(dp2413
g4
F3428.0
sg5
F708.0
ssI19
(dp2414
g4
F0.0
sg5
F0.0
ssI21
(dp2415
g4
F0.0
sg5
F0.0
ssI23
(dp2416
g4
F3291.0
sg5
F875.0
ssI25
(dp2417
g4
F3715.0
sg5
F1261.0
ssI27
(dp2418
g4
F7915.0
sg5
F859.0
ssI29
(dp2419
g4
F0.0
sg5
F0.0
ssI31
(dp2420
g4
F0.0
sg5
F0.0
ssI33
(dp2421
g4
F1724.0
sg5
F214.0
ssI35
(dp2422
g4
F211275.0
sg5
F229653.0
ssI37
(dp2423
g4
F4563.0
sg5
F2237.0
ssI39
(dp2424
g4
F14022.0
sg5
F2016.0
ssI41
(dp2425
g4
F10526.0
sg5
F1196.0
ssI43
(dp2426
g4
F12674.0
sg5
F15749.0
ssI45
(dp2427
g4
F22706.0
sg5
F8366.0
ssI47
(dp2428
g4
F19601.0
sg5
F2131.0
ssI49
(dp2429
g4
F217740.0
sg5
F43982.0
ssI51
(dp2430
g4
F13506.0
sg5
F5457.0
ssI53
(dp2431
g4
F70478.0
sg5
F16711.0
ssI55
(dp2432
g4
F2059.0
sg5
F529.0
ssI57
(dp2433
g4
F72304.0
sg5
F38350.0
sssS'MO'
p2434
(dp2435
I0
(dp2436
g4
F4385916.0
sg5
F3570557.0
ssI1
(dp2437
g4
F17366.0
sg5
F11836.0
ssI3
(dp2438
g4
F18046.0
sg5
F8343.0
ssI5
(dp2439
g4
F5666.0
sg5
F2087.0
ssI7
(dp2440
g4
F18538.0
sg5
F10077.0
ssI9
(dp2441
g4
F31427.0
sg5
F10735.0
ssI11
(dp2442
g4
F13990.0
sg5
F3229.0
ssI13
(dp2443
g4
F15401.0
sg5
F7469.0
ssI15
(dp2444
g4
F19142.0
sg5
F8318.0
ssI17
(dp2445
g4
F12894.0
sg5
F3500.0
ssI19
(dp2446
g4
F104318.0
sg5
F131485.0
ssI21
(dp2447
g4
F57674.0
sg5
F43739.0
ssI23
(dp2448
g4
F38004.0
sg5
F11618.0
ssI25
(dp2449
g4
F8470.0
sg5
F3795.0
ssI27
(dp2450
g4
F35176.0
sg5
F19409.0
ssI29
(dp2451
g4
F45842.0
sg5
F18204.0
ssI31
(dp2452
g4
F75183.0
sg5
F31164.0
ssI33
(dp2453
g4
F9192.0
sg5
F3427.0
ssI35
(dp2454
g4
F6281.0
sg5
F1829.0
ssI37
(dp2455
g4
F88943.0
sg5
F56075.0
ssI39
(dp2456
g4
F13876.0
sg5
F4213.0
ssI41
(dp2457
g4
F7630.0
sg5
F3875.0
ssI43
(dp2458
g4
F87359.0
sg5
F31947.0
ssI45
(dp2459
g4
F6548.0
sg5
F2927.0
ssI47
(dp2460
g4
F160134.0
sg5
F152650.0
ssI49
(dp2461
g4
F18686.0
sg5
F10419.0
ssI51
(dp2462
g4
F67406.0
sg5
F40921.0
ssI53
(dp2463
g4
F15247.0
sg5
F7690.0
ssI55
(dp2464
g4
F19786.0
sg5
F7860.0
ssI57
(dp2465
g4
F8714.0
sg5
F2718.0
ssI59
(dp2466
g4
F15939.0
sg5
F5461.0
ssI61
(dp2467
g4
F7267.0
sg5
F3292.0
ssI63
(dp2468
g4
F9427.0
sg5
F3715.0
ssI65
(dp2469
g4
F15217.0
sg5
F4408.0
ssI67
(dp2470
g4
F15057.0
sg5
F4147.0
ssI69
(dp2471
g4
F21815.0
sg5
F8807.0
ssI71
(dp2472
g4
F91729.0
sg5
F50193.0
ssI73
(dp2473
g4
F15094.0
sg5
F6240.0
ssI75
(dp2474
g4
F6104.0
sg5
F2640.0
ssI77
(dp2475
g4
F222751.0
sg5
F143838.0
ssI79
(dp2476
g4
F9406.0
sg5
F3374.0
ssI81
(dp2477
g4
F7853.0
sg5
F2708.0
ssI83
(dp2478
g4
F18420.0
sg5
F9834.0
ssI85
(dp2479
g4
F9425.0
sg5
F4114.0
ssI87
(dp2480
g4
F5055.0
sg5
F1726.0
ssI89
(dp2481
g4
F8675.0
sg5
F5143.0
ssI91
(dp2482
g4
F38215.0
sg5
F11711.0
ssI93
(dp2483
g4
F8102.0
sg5
F4101.0
ssI95
(dp2484
g4
F323222.0
sg5
F519538.0
ssI97
(dp2485
g4
F100599.0
sg5
F37587.0
ssI99
(dp2486
g4
F178868.0
sg5
F123683.0
ssI101
(dp2487
g4
F37317.0
sg5
F22552.0
ssI103
(dp2488
g4
F3745.0
sg5
F1609.0
ssI105
(dp2489
g4
F35437.0
sg5
F10600.0
ssI107
(dp2490
g4
F28939.0
sg5
F16277.0
ssI109
(dp2491
g4
F36166.0
sg5
F11710.0
ssI111
(dp2492
g4
F8887.0
sg5
F3895.0
ssI113
(dp2493
g4
F46635.0
sg5
F24129.0
ssI115
(dp2494
g4
F10739.0
sg5
F5277.0
ssI117
(dp2495
g4
F12902.0
sg5
F5465.0
ssI119
(dp2496
g4
F18324.0
sg5
F4975.0
ssI121
(dp2497
g4
F15750.0
sg5
F6156.0
ssI123
(dp2498
g4
F10710.0
sg5
F4478.0
ssI125
(dp2499
g4
F9360.0
sg5
F3641.0
ssI127
(dp2500
g4
F26139.0
sg5
F11210.0
ssI129
(dp2501
g4
F3941.0
sg5
F1067.0
ssI131
(dp2502
g4
F24969.0
sg5
F7893.0
ssI133
(dp2503
g4
F9430.0
sg5
F5464.0
ssI135
(dp2504
g4
F14117.0
sg5
F5593.0
ssI137
(dp2505
g4
F8402.0
sg5
F3550.0
ssI139
(dp2506
g4
F10786.0
sg5
F4794.0
ssI141
(dp2507
g4
F17984.0
sg5
F7371.0
ssI143
(dp2508
g4
F13819.0
sg5
F7531.0
ssI145
(dp2509
g4
F58255.0
sg5
F18282.0
ssI147
(dp2510
g4
F17683.0
sg5
F9365.0
ssI149
(dp2511
g4
F9774.0
sg5
F3635.0
ssI151
(dp2512
g4
F15198.0
sg5
F5354.0
ssI153
(dp2513
g4
F9802.0
sg5
F3065.0
ssI155
(dp2514
g4
F10973.0
sg5
F6355.0
ssI157
(dp2515
g4
F18230.0
sg5
F6820.0
ssI159
(dp2516
g4
F34273.0
sg5
F17246.0
ssI161
(dp2517
g4
F35376.0
sg5
F17494.0
ssI163
(dp2518
g4
F13747.0
sg5
F7433.0
ssI165
(dp2519
g4
F70869.0
sg5
F63106.0
ssI167
(dp2520
g4
F29374.0
sg5
F10401.0
ssI169
(dp2521
g4
F27569.0
sg5
F10836.0
ssI171
(dp2522
g4
F5335.0
sg5
F1384.0
ssI173
(dp2523
g4
F10560.0
sg5
F4664.0
ssI175
(dp2524
g4
F20169.0
sg5
F9500.0
ssI177
(dp2525
g4
F18206.0
sg5
F12523.0
ssI179
(dp2526
g4
F6143.0
sg5
F2426.0
ssI181
(dp2527
g4
F12291.0
sg5
F3479.0
ssI183
(dp2528
g4
F333302.0
sg5
F241142.0
ssI185
(dp2529
g4
F9369.0
sg5
F3956.0
ssI186
(dp2530
g4
F13831.0
sg5
F10433.0
ssI187
(dp2531
g4
F45007.0
sg5
F25791.0
ssI189
(dp2532
g4
F581686.0
sg5
F879215.0
ssI195
(dp2533
g4
F15491.0
sg5
F10848.0
ssI197
(dp2534
g4
F4024.0
sg5
F1496.0
ssI199
(dp2535
g4
F4081.0
sg5
F1545.0
ssI201
(dp2536
g4
F35529.0
sg5
F14425.0
ssI203
(dp2537
g4
F7767.0
sg5
F3332.0
ssI205
(dp2538
g4
F6796.0
sg5
F2632.0
ssI207
(dp2539
g4
F30184.0
sg5
F8472.0
ssI209
(dp2540
g4
F36677.0
sg5
F11177.0
ssI211
(dp2541
g4
F5188.0
sg5
F2048.0
ssI213
(dp2542
g4
F50880.0
sg5
F16475.0
ssI215
(dp2543
g4
F24153.0
sg5
F7475.0
ssI217
(dp2544
g4
F17665.0
sg5
F7019.0
ssI219
(dp2545
g4
F29081.0
sg5
F15798.0
ssI221
(dp2546
g4
F17809.0
sg5
F8583.0
ssI223
(dp2547
g4
F12341.0
sg5
F4065.0
ssI225
(dp2548
g4
F35407.0
sg5
F12817.0
ssI227
(dp2549
g4
F2189.0
sg5
F809.0
ssI229
(dp2550
g4
F18619.0
sg5
F4899.0
ssI510
(dp2551
g4
F60143.0
sg5
F308345.0
sssS'MN'
p2552
(dp2553
I0
(dp2554
g4
F1332722.0
sg5
F1430799.0
ssI1
(dp2555
g4
F5516.0
sg5
F3134.0
ssI3
(dp2556
g4
F93341.0
sg5
F75499.0
ssI5
(dp2557
g4
F10880.0
sg5
F5208.0
ssI7
(dp2558
g4
F10783.0
sg5
F8688.0
ssI9
(dp2559
g4
F12872.0
sg5
F5640.0
ssI11
(dp2560
g4
F1607.0
sg5
F921.0
ssI13
(dp2561
g4
F15667.0
sg5
F14428.0
ssI15
(dp2562
g4
F8708.0
sg5
F3763.0
ssI17
(dp2563
g4
F8160.0
sg5
F8460.0
ssI19
(dp2564
g4
F29063.0
sg5
F21514.0
ssI21
(dp2565
g4
F9982.0
sg5
F4949.0
ssI23
(dp2566
g4
F3764.0
sg5
F1978.0
ssI25
(dp2567
g4
F18444.0
sg5
F9281.0
ssI27
(dp2568
g4
F13530.0
sg5
F12953.0
ssI29
(dp2569
g4
F2925.0
sg5
F1100.0
ssI31
(dp2570
g4
F1156.0
sg5
F1912.0
ssI33
(dp2571
g4
F3679.0
sg5
F1678.0
ssI35
(dp2572
g4
F22287.0
sg5
F10982.0
ssI37
(dp2573
g4
F97919.0
sg5
F107665.0
ssI39
(dp2574
g4
F6527.0
sg5
F3102.0
ssI41
(dp2575
g4
F13966.0
sg5
F6227.0
ssI43
(dp2576
g4
F4659.0
sg5
F2153.0
ssI45
(dp2577
g4
F6271.0
sg5
F3872.0
ssI47
(dp2578
g4
F8808.0
sg5
F6041.0
ssI49
(dp2579
g4
F14041.0
sg5
F9446.0
ssI51
(dp2580
g4
F2063.0
sg5
F1104.0
ssI53
(dp2581
g4
F191767.0
sg5
F429274.0
ssI55
(dp2582
g4
F5616.0
sg5
F4145.0
ssI57
(dp2583
g4
F7269.0
sg5
F3432.0
ssI59
(dp2584
g4
F13635.0
sg5
F5656.0
ssI61
(dp2585
g4
F12920.0
sg5
F9015.0
ssI63
(dp2586
g4
F3609.0
sg5
F1492.0
ssI65
(dp2587
g4
F5230.0
sg5
F2327.0
ssI67
(dp2588
g4
F12785.0
sg5
F7266.0
ssI69
(dp2589
g4
F1349.0
sg5
F823.0
ssI71
(dp2590
g4
F3569.0
sg5
F2306.0
ssI73
(dp2591
g4
F2294.0
sg5
F1301.0
ssI75
(dp2592
g4
F2932.0
sg5
F3077.0
ssI77
(dp2593
g4
F1540.0
sg5
F553.0
ssI79
(dp2594
g4
F9182.0
sg5
F4623.0
ssI81
(dp2595
g4
F1930.0
sg5
F860.0
ssI83
(dp2596
g4
F7259.0
sg5
F3825.0
ssI85
(dp2597
g4
F12155.0
sg5
F4980.0
ssI87
(dp2598
g4
F991.0
sg5
F930.0
ssI89
(dp2599
g4
F3208.0
sg5
F1225.0
ssI91
(dp2600
g4
F7062.0
sg5
F2733.0
ssI93
(dp2601
g4
F8104.0
sg5
F3192.0
ssI95
(dp2602
g4
F8340.0
sg5
F3709.0
ssI97
(dp2603
g4
F12925.0
sg5
F3637.0
ssI99
(dp2604
g4
F8826.0
sg5
F7444.0
ssI101
(dp2605
g4
F2974.0
sg5
F1295.0
ssI103
(dp2606
g4
F8436.0
sg5
F7886.0
ssI105
(dp2607
g4
F5299.0
sg5
F2733.0
ssI107
(dp2608
g4
F1699.0
sg5
F1264.0
ssI109
(dp2609
g4
F35668.0
sg5
F36266.0
ssI111
(dp2610
g4
F20939.0
sg5
F9339.0
ssI113
(dp2611
g4
F4000.0
sg5
F2146.0
ssI115
(dp2612
g4
F8191.0
sg5
F4580.0
ssI117
(dp2613
g4
F3338.0
sg5
F1127.0
ssI119
(dp2614
g4
F8979.0
sg5
F4712.0
ssI121
(dp2615
g4
F3794.0
sg5
F2106.0
ssI123
(dp2616
g4
F70656.0
sg5
F176600.0
ssI125
(dp2617
g4
F1141.0
sg5
F540.0
ssI127
(dp2618
g4
F5138.0
sg5
F1887.0
ssI129
(dp2619
g4
F4890.0
sg5
F2117.0
ssI131
(dp2620
g4
F15428.0
sg5
F14437.0
ssI133
(dp2621
g4
F3091.0
sg5
F1373.0
ssI135
(dp2622
g4
F5451.0
sg5
F1856.0
ssI137
(dp2623
g4
F44631.0
sg5
F57769.0
ssI139
(dp2624
g4
F39948.0
sg5
F28502.0
ssI141
(dp2625
g4
F31049.0
sg5
F13299.0
ssI143
(dp2626
g4
F5193.0
sg5
F1954.0
ssI145
(dp2627
g4
F47618.0
sg5
F25575.0
ssI147
(dp2628
g4
F11198.0
sg5
F6239.0
ssI149
(dp2629
g4
F2800.0
sg5
F2116.0
ssI151
(dp2630
g4
F2962.0
sg5
F1679.0
ssI153
(dp2631
g4
F8485.0
sg5
F2783.0
ssI155
(dp2632
g4
F1050.0
sg5
F631.0
ssI157
(dp2633
g4
F6989.0
sg5
F3866.0
ssI159
(dp2634
g4
F4824.0
sg5
F1681.0
ssI161
(dp2635
g4
F5967.0
sg5
F2838.0
ssI163
(dp2636
g4
F64429.0
sg5
F67086.0
ssI165
(dp2637
g4
F2768.0
sg5
F1814.0
ssI167
(dp2638
g4
F2129.0
sg5
F893.0
ssI169
(dp2639
g4
F12122.0
sg5
F11366.0
ssI171
(dp2640
g4
F43274.0
sg5
F20336.0
ssI173
(dp2641
g4
F3332.0
sg5
F1524.0
sssS'MI'
p2642
(dp2643
I149
(dp2644
g4
F14886.0
sg5
F7529.0
ssI1
(dp2645
g4
F4201.0
sg5
F1732.0
ssI3
(dp2646
g4
F2585.0
sg5
F1663.0
ssI5
(dp2647
g4
F33812.0
sg5
F17932.0
ssI0
(dp2648
g4
F2243522.0
sg5
F2189624.0
ssI7
(dp2649
g4
F9090.0
sg5
F4877.0
ssI145
(dp2650
g4
F45469.0
sg5
F44395.0
ssI9
(dp2651
g4
F8469.0
sg5
F4448.0
ssI11
(dp2652
g4
F4704.0
sg5
F2238.0
ssI13
(dp2653
g4
F2158.0
sg5
F1156.0
ssI161
(dp2654
g4
F50335.0
sg5
F128025.0
ssI15
(dp2655
g4
F19197.0
sg5
F9109.0
ssI141
(dp2656
g4
F4486.0
sg5
F2400.0
ssI17
(dp2657
g4
F28327.0
sg5
F21641.0
ssI19
(dp2658
g4
F5539.0
sg5
F4108.0
ssI21
(dp2659
g4
F38646.0
sg5
F29496.0
ssI23
(dp2660
g4
F11025.0
sg5
F4740.0
ssI137
(dp2661
g4
F8266.0
sg5
F3556.0
ssI25
(dp2662
g4
F31489.0
sg5
F24154.0
ssI27
(dp2663
g4
F14241.0
sg5
F7270.0
ssI29
(dp2664
g4
F8674.0
sg5
F5137.0
ssI31
(dp2665
g4
F8680.0
sg5
F4302.0
ssI133
(dp2666
g4
F7336.0
sg5
F2705.0
ssI33
(dp2667
g4
F9120.0
sg5
F5378.0
ssI35
(dp2668
g4
F8507.0
sg5
F4250.0
ssI37
(dp2669
g4
F21635.0
sg5
F16490.0
ssI39
(dp2670
g4
F4354.0
sg5
F2110.0
ssI129
(dp2671
g4
F6827.0
sg5
F3030.0
ssI41
(dp2672
g4
F11112.0
sg5
F6431.0
ssI43
(dp2673
g4
F8580.0
sg5
F3923.0
ssI159
(dp2674
g4
F17890.0
sg5
F13258.0
ssI45
(dp2675
g4
F27608.0
sg5
F24534.0
ssI47
(dp2676
g4
F10616.0
sg5
F6972.0
ssI49
(dp2677
g4
F84174.0
sg5
F102744.0
ssI51
(dp2678
g4
F8124.0
sg5
F3794.0
ssI155
(dp2679
g4
F19232.0
sg5
F12547.0
ssI53
(dp2680
g4
F4019.0
sg5
F2925.0
ssI55
(dp2681
g4
F27412.0
sg5
F20964.0
ssI57
(dp2682
g4
F9878.0
sg5
F5665.0
ssI163
(dp2683
g4
F228313.0
sg5
F517022.0
ssI59
(dp2684
g4
F14094.0
sg5
F4799.0
ssI151
(dp2685
g4
F13446.0
sg5
F4873.0
ssI61
(dp2686
g4
F8475.0
sg5
F6018.0
ssI63
(dp2687
g4
F10629.0
sg5
F4579.0
ssI65
(dp2688
g4
F44346.0
sg5
F80015.0
ssI67
(dp2689
g4
F16374.0
sg5
F8206.0
ssI147
(dp2690
g4
F49067.0
sg5
F24553.0
ssI69
(dp2691
g4
F8344.0
sg5
F4344.0
ssI71
(dp2692
g4
F3675.0
sg5
F2004.0
ssI73
(dp2693
g4
F12338.0
sg5
F11404.0
ssI75
(dp2694
g4
F39793.0
sg5
F25795.0
ssI143
(dp2695
g4
F8141.0
sg5
F4287.0
ssI77
(dp2696
g4
F51031.0
sg5
F67142.0
ssI79
(dp2697
g4
F6213.0
sg5
F2279.0
ssI81
(dp2698
g4
F147959.0
sg5
F138567.0
ssI83
(dp2699
g4
F814.0
sg5
F527.0
ssI139
(dp2700
g4
F90456.0
sg5
F46276.0
ssI85
(dp2701
g4
F3159.0
sg5
F1939.0
ssI87
(dp2702
g4
F30037.0
sg5
F12734.0
ssI89
(dp2703
g4
F7239.0
sg5
F6774.0
ssI91
(dp2704
g4
F26428.0
sg5
F16750.0
ssI135
(dp2705
g4
F2843.0
sg5
F1044.0
ssI93
(dp2706
g4
F65665.0
sg5
F34378.0
ssI95
(dp2707
g4
F1756.0
sg5
F681.0
ssI97
(dp2708
g4
F3740.0
sg5
F2085.0
ssI99
(dp2709
g4
F224589.0
sg5
F176238.0
ssI131
(dp2710
g4
F2069.0
sg5
F1175.0
ssI101
(dp2711
g4
F6915.0
sg5
F4979.0
ssI165
(dp2712
g4
F10000.0
sg5
F4436.0
ssI103
(dp2713
g4
F14646.0
sg5
F16042.0
ssI105
(dp2714
g4
F8505.0
sg5
F5281.0
ssI107
(dp2715
g4
F10305.0
sg5
F5827.0
ssI109
(dp2716
g4
F6704.0
sg5
F3539.0
ssI111
(dp2717
g4
F23877.0
sg5
F15655.0
ssI157
(dp2718
g4
F17421.0
sg5
F7493.0
ssI113
(dp2719
g4
F5386.0
sg5
F1565.0
ssI115
(dp2720
g4
F43255.0
sg5
F26859.0
ssI117
(dp2721
g4
F16907.0
sg5
F7874.0
ssI119
(dp2722
g4
F3498.0
sg5
F1286.0
ssI153
(dp2723
g4
F2556.0
sg5
F1369.0
ssI121
(dp2724
g4
F35962.0
sg5
F36640.0
ssI123
(dp2725
g4
F15174.0
sg5
F6212.0
ssI125
(dp2726
g4
F289127.0
sg5
F342976.0
ssI127
(dp2727
g4
F7228.0
sg5
F3973.0
sssS'RI'
p2728
(dp2729
I0
(dp2730
g4
F129028.0
sg5
F237244.0
ssI1
(dp2731
g4
F7468.0
sg5
F11455.0
ssI3
(dp2732
g4
F36147.0
sg5
F34585.0
ssI5
(dp2733
g4
F13370.0
sg5
F19603.0
ssI7
(dp2734
g4
F84939.0
sg5
F131372.0
ssI9
(dp2735
g4
F23886.0
sg5
F28430.0
sssS'KS'
p2736
(dp2737
I0
(dp2738
g4
F1393038.0
sg5
F675719.0
ssI1
(dp2739
g4
F7398.0
sg5
F2560.0
ssI3
(dp2740
g4
F4767.0
sg5
F1371.0
ssI5
(dp2741
g4
F8200.0
sg5
F3820.0
ssI7
(dp2742
g4
F3630.0
sg5
F553.0
ssI9
(dp2743
g4
F15969.0
sg5
F3119.0
ssI11
(dp2744
g4
F8635.0
sg5
F2587.0
ssI13
(dp2745
g4
F5927.0
sg5
F1584.0
ssI15
(dp2746
g4
F38210.0
sg5
F12334.0
ssI17
(dp2747
g4
F1971.0
sg5
F579.0
ssI19
(dp2748
g4
F3031.0
sg5
F481.0
ssI21
(dp2749
g4
F11805.0
sg5
F4069.0
ssI23
(dp2750
g4
F2398.0
sg5
F313.0
ssI25
(dp2751
g4
F1641.0
sg5
F219.0
ssI27
(dp2752
g4
F6017.0
sg5
F1076.0
ssI29
(dp2753
g4
F5889.0
sg5
F1325.0
ssI31
(dp2754
g4
F6078.0
sg5
F1316.0
ssI33
(dp2755
g4
F1428.0
sg5
F200.0
ssI35
(dp2756
g4
F16295.0
sg5
F6610.0
ssI37
(dp2757
g4
F17143.0
sg5
F9977.0
ssI39
(dp2758
g4
F2457.0
sg5
F305.0
ssI41
(dp2759
g4
F12164.0
sg5
F2826.0
ssI43
(dp2760
g4
F5134.0
sg5
F1184.0
ssI45
(dp2761
g4
F31458.0
sg5
F59407.0
ssI47
(dp2762
g4
F2106.0
sg5
F372.0
ssI49
(dp2763
g4
F2060.0
sg5
F314.0
ssI51
(dp2764
g4
F17475.0
sg5
F4818.0
ssI53
(dp2765
g4
F4098.0
sg5
F892.0
ssI55
(dp2766
g4
F13067.0
sg5
F5226.0
ssI57
(dp2767
g4
F10401.0
sg5
F3595.0
ssI59
(dp2768
g4
F14271.0
sg5
F5497.0
ssI61
(dp2769
g4
F8849.0
sg5
F4629.0
ssI63
(dp2770
g4
F2313.0
sg5
F266.0
ssI65
(dp2771
g4
F2097.0
sg5
F317.0
ssI67
(dp2772
g4
F3599.0
sg5
F733.0
ssI69
(dp2773
g4
F3358.0
sg5
F475.0
ssI71
(dp2774
g4
F1082.0
sg5
F131.0
ssI73
(dp2775
g4
F4299.0
sg5
F942.0
ssI75
(dp2776
g4
F1403.0
sg5
F194.0
ssI77
(dp2777
g4
F3926.0
sg5
F754.0
ssI79
(dp2778
g4
F18155.0
sg5
F9187.0
ssI81
(dp2779
g4
F2115.0
sg5
F374.0
ssI83
(dp2780
g4
F1724.0
sg5
F207.0
ssI85
(dp2781
g4
F7951.0
sg5
F2892.0
ssI87
(dp2782
g4
F10477.0
sg5
F4943.0
ssI89
(dp2783
g4
F2442.0
sg5
F308.0
ssI91
(dp2784
g4
F287970.0
sg5
F233553.0
ssI93
(dp2785
g4
F2158.0
sg5
F382.0
ssI95
(dp2786
g4
F5147.0
sg5
F1078.0
ssI97
(dp2787
g4
F1756.0
sg5
F192.0
ssI99
(dp2788
g4
F10349.0
sg5
F4497.0
ssI101
(dp2789
g4
F1413.0
sg5
F180.0
ssI103
(dp2790
g4
F35443.0
sg5
F20077.0
ssI105
(dp2791
g4
F2291.0
sg5
F380.0
ssI107
(dp2792
g4
F6548.0
sg5
F1500.0
ssI109
(dp2793
g4
F2315.0
sg5
F255.0
ssI111
(dp2794
g4
F14016.0
sg5
F8061.0
ssI113
(dp2795
g4
F17898.0
sg5
F5669.0
ssI115
(dp2796
g4
F8333.0
sg5
F2071.0
ssI117
(dp2797
g4
F6786.0
sg5
F1914.0
ssI119
(dp2798
g4
F2856.0
sg5
F361.0
ssI121
(dp2799
g4
F20121.0
sg5
F7679.0
ssI123
(dp2800
g4
F4627.0
sg5
F796.0
ssI125
(dp2801
g4
F16520.0
sg5
F5167.0
ssI127
(dp2802
g4
F3844.0
sg5
F993.0
ssI129
(dp2803
g4
F1957.0
sg5
F249.0
ssI131
(dp2804
g4
F8305.0
sg5
F1372.0
ssI133
(dp2805
g4
F8635.0
sg5
F2852.0
ssI135
(dp2806
g4
F2492.0
sg5
F265.0
ssI137
(dp2807
g4
F3676.0
sg5
F509.0
ssI139
(dp2808
g4
F9585.0
sg5
F3339.0
ssI141
(dp2809
g4
F2937.0
sg5
F416.0
ssI143
(dp2810
g4
F4553.0
sg5
F778.0
ssI145
(dp2811
g4
F3946.0
sg5
F993.0
ssI147
(dp2812
g4
F4482.0
sg5
F502.0
ssI149
(dp2813
g4
F15679.0
sg5
F3994.0
ssI151
(dp2814
g4
F5830.0
sg5
F1368.0
ssI153
(dp2815
g4
F2461.0
sg5
F284.0
ssI155
(dp2816
g4
F31911.0
sg5
F12039.0
ssI157
(dp2817
g4
F4081.0
sg5
F638.0
ssI159
(dp2818
g4
F5436.0
sg5
F1256.0
ssI161
(dp2819
g4
F22856.0
sg5
F15705.0
ssI163
(dp2820
g4
F4071.0
sg5
F463.0
ssI165
(dp2821
g4
F2440.0
sg5
F388.0
ssI167
(dp2822
g4
F5149.0
sg5
F826.0
ssI169
(dp2823
g4
F28002.0
sg5
F11001.0
ssI171
(dp2824
g4
F3703.0
sg5
F411.0
ssI173
(dp2825
g4
F210646.0
sg5
F126927.0
ssI175
(dp2826
g4
F6057.0
sg5
F2600.0
ssI177
(dp2827
g4
F76198.0
sg5
F63190.0
ssI179
(dp2828
g4
F2378.0
sg5
F244.0
ssI181
(dp2829
g4
F4165.0
sg5
F623.0
ssI183
(dp2830
g4
F3357.0
sg5
F508.0
ssI185
(dp2831
g4
F3042.0
sg5
F533.0
ssI187
(dp2832
g4
F1178.0
sg5
F221.0
ssI189
(dp2833
g4
F3088.0
sg5
F424.0
ssI191
(dp2834
g4
F13547.0
sg5
F4121.0
ssI193
(dp2835
g4
F5778.0
sg5
F877.0
ssI195
(dp2836
g4
F2400.0
sg5
F389.0
ssI197
(dp2837
g4
F4925.0
sg5
F1389.0
ssI199
(dp2838
g4
F1436.0
sg5
F80.0
ssI201
(dp2839
g4
F4418.0
sg5
F654.0
ssI203
(dp2840
g4
F1553.0
sg5
F253.0
ssI205
(dp2841
g4
F5514.0
sg5
F1057.0
ssI207
(dp2842
g4
F2108.0
sg5
F526.0
ssI209
(dp2843
g4
F31119.0
sg5
F57128.0
sssS'MT'
p2844
(dp2845
I0
(dp2846
g4
F486491.0
sg5
F419618.0
ssI1
(dp2847
g4
F6033.0
sg5
F3041.0
ssI3
(dp2848
g4
F3316.0
sg5
F4744.0
ssI5
(dp2849
g4
F2333.0
sg5
F2797.0
ssI7
(dp2850
g4
F4149.0
sg5
F1828.0
ssI9
(dp2851
g4
F6859.0
sg5
F4587.0
ssI11
(dp2852
g4
F1326.0
sg5
F198.0
ssI13
(dp2853
g4
F29206.0
sg5
F26984.0
ssI15
(dp2854
g4
F3040.0
sg5
F1982.0
ssI17
(dp2855
g4
F6664.0
sg5
F3223.0
ssI19
(dp2856
g4
F1377.0
sg5
F405.0
ssI21
(dp2857
g4
F6423.0
sg5
F1858.0
ssI23
(dp2858
g4
F2868.0
sg5
F5016.0
ssI25
(dp2859
g4
F2334.0
sg5
F521.0
ssI27
(dp2860
g4
F7863.0
sg5
F3361.0
ssI29
(dp2861
g4
F56333.0
sg5
F32350.0
ssI31
(dp2862
g4
F34752.0
sg5
F41282.0
ssI33
(dp2863
g4
F1256.0
sg5
F148.0
ssI35
(dp2864
g4
F2860.0
sg5
F6817.0
ssI37
(dp2865
g4
F673.0
sg5
F237.0
ssI39
(dp2866
g4
F2158.0
sg5
F1255.0
ssI41
(dp2867
g4
F6066.0
sg5
F6129.0
ssI43
(dp2868
g4
F7635.0
sg5
F5018.0
ssI45
(dp2869
g4
F1584.0
sg5
F713.0
ssI47
(dp2870
g4
F13757.0
sg5
F11160.0
ssI49
(dp2871
g4
F28069.0
sg5
F33445.0
ssI51
(dp2872
g4
F1265.0
sg5
F582.0
ssI53
(dp2873
g4
F12442.0
sg5
F5343.0
ssI55
(dp2874
g4
F1652.0
sg5
F402.0
ssI57
(dp2875
g4
F6011.0
sg5
F3148.0
ssI59
(dp2876
g4
F1327.0
sg5
F555.0
ssI61
(dp2877
g4
F2385.0
sg5
F1384.0
ssI63
(dp2878
g4
F33496.0
sg5
F57391.0
ssI65
(dp2879
g4
F3557.0
sg5
F1069.0
ssI67
(dp2880
g4
F8499.0
sg5
F8013.0
ssI69
(dp2881
g4
F521.0
sg5
F104.0
ssI71
(dp2882
g4
F3399.0
sg5
F806.0
ssI73
(dp2883
g4
F3199.0
sg5
F2042.0
ssI75
(dp2884
g4
F1657.0
sg5
F383.0
ssI77
(dp2885
g4
F3647.0
sg5
F1647.0
ssI79
(dp2886
g4
F1055.0
sg5
F273.0
ssI81
(dp2887
g4
F27268.0
sg5
F15529.0
ssI83
(dp2888
g4
F7447.0
sg5
F1745.0
ssI85
(dp2889
g4
F3190.0
sg5
F3461.0
ssI87
(dp2890
g4
F4192.0
sg5
F2367.0
ssI89
(dp2891
g4
F7726.0
sg5
F3466.0
ssI91
(dp2892
g4
F2267.0
sg5
F1248.0
ssI93
(dp2893
g4
F10689.0
sg5
F20416.0
ssI95
(dp2894
g4
F6643.0
sg5
F2639.0
ssI97
(dp2895
g4
F2952.0
sg5
F1099.0
ssI99
(dp2896
g4
F3918.0
sg5
F2232.0
ssI101
(dp2897
g4
F2704.0
sg5
F1192.0
ssI103
(dp2898
g4
F626.0
sg5
F218.0
ssI105
(dp2899
g4
F5038.0
sg5
F2350.0
ssI107
(dp2900
g4
F1243.0
sg5
F577.0
ssI109
(dp2901
g4
F838.0
sg5
F198.0
ssI111
(dp2902
g4
F71367.0
sg5
F53311.0
sssS'MS'
p2903
(dp2904
I149
(dp2905
g4
F9420.0
sg5
F8518.0
ssI1
(dp2906
g4
F5125.0
sg5
F6921.0
ssI3
(dp2907
g4
F11616.0
sg5
F2609.0
ssI5
(dp2908
g4
F4282.0
sg5
F2688.0
ssI0
(dp2909
g4
F657290.0
sg5
F427731.0
ssI7
(dp2910
g4
F4288.0
sg5
F2847.0
ssI145
(dp2911
g4
F9161.0
sg5
F1969.0
ssI9
(dp2912
g4
F2239.0
sg5
F1704.0
ssI11
(dp2913
g4
F4251.0
sg5
F8410.0
ssI13
(dp2914
g4
F4360.0
sg5
F1884.0
ssI161
(dp2915
g4
F3366.0
sg5
F2574.0
ssI15
(dp2916
g4
F3774.0
sg5
F1648.0
ssI141
(dp2917
g4
F7117.0
sg5
F990.0
ssI17
(dp2918
g4
F4127.0
sg5
F3649.0
ssI19
(dp2919
g4
F2757.0
sg5
F1193.0
ssI21
(dp2920
g4
F414.0
sg5
F2523.0
ssI23
(dp2921
g4
F5088.0
sg5
F2556.0
ssI137
(dp2922
g4
F7385.0
sg5
F3804.0
ssI25
(dp2923
g4
F4136.0
sg5
F5695.0
ssI27
(dp2924
g4
F2094.0
sg5
F5954.0
ssI29
(dp2925
g4
F5576.0
sg5
F6203.0
ssI31
(dp2926
g4
F5423.0
sg5
F3267.0
ssI133
(dp2927
g4
F2768.0
sg5
F6560.0
ssI33
(dp2928
g4
F42155.0
sg5
F19892.0
ssI35
(dp2929
g4
F15149.0
sg5
F11271.0
ssI37
(dp2930
g4
F2685.0
sg5
F1471.0
ssI39
(dp2931
g4
F8652.0
sg5
F1013.0
ssI129
(dp2932
g4
F5877.0
sg5
F1598.0
ssI41
(dp2933
g4
F4309.0
sg5
F956.0
ssI43
(dp2934
g4
F5940.0
sg5
F4386.0
ssI159
(dp2935
g4
F4874.0
sg5
F3778.0
ssI45
(dp2936
g4
F13720.0
sg5
F3320.0
ssI47
(dp2937
g4
F39710.0
sg5
F20679.0
ssI49
(dp2938
g4
F24813.0
sg5
F65727.0
ssI51
(dp2939
g4
F1151.0
sg5
F5820.0
ssI155
(dp2940
g4
F3949.0
sg5
F1001.0
ssI53
(dp2941
g4
F924.0
sg5
F2652.0
ssI55
(dp2942
g4
F298.0
sg5
F395.0
ssI57
(dp2943
g4
F8385.0
sg5
F1100.0
ssI163
(dp2944
g4
F4300.0
sg5
F4988.0
ssI59
(dp2945
g4
F31204.0
sg5
F13087.0
ssI151
(dp2946
g4
F4541.0
sg5
F9847.0
ssI61
(dp2947
g4
F4032.0
sg5
F4367.0
ssI63
(dp2948
g4
F489.0
sg5
F3337.0
ssI65
(dp2949
g4
F2462.0
sg5
F3703.0
ssI67
(dp2950
g4
F20076.0
sg5
F7748.0
ssI147
(dp2951
g4
F3757.0
sg5
F2597.0
ssI69
(dp2952
g4
F1778.0
sg5
F2827.0
ssI71
(dp2953
g4
F10872.0
sg5
F7968.0
ssI73
(dp2954
g4
F18493.0
sg5
F5044.0
ssI75
(dp2955
g4
F17574.0
sg5
F10910.0
ssI143
(dp2956
g4
F840.0
sg5
F2577.0
ssI77
(dp2957
g4
F4072.0
sg5
F2181.0
ssI79
(dp2958
g4
F4775.0
sg5
F3579.0
ssI81
(dp2959
g4
F21695.0
sg5
F9635.0
ssI83
(dp2960
g4
F2757.0
sg5
F6677.0
ssI139
(dp2961
g4
F7182.0
sg5
F1808.0
ssI85
(dp2962
g4
F10550.0
sg5
F4458.0
ssI87
(dp2963
g4
F13124.0
sg5
F11545.0
ssI89
(dp2964
g4
F25607.0
sg5
F18358.0
ssI91
(dp2965
g4
F7697.0
sg5
F3572.0
ssI135
(dp2966
g4
F2437.0
sg5
F3311.0
ssI93
(dp2967
g4
F6525.0
sg5
F7944.0
ssI95
(dp2968
g4
F10107.0
sg5
F5485.0
ssI97
(dp2969
g4
F2334.0
sg5
F1775.0
ssI99
(dp2970
g4
F7613.0
sg5
F2668.0
ssI131
(dp2971
g4
F4810.0
sg5
F1400.0
ssI101
(dp2972
g4
F5929.0
sg5
F2549.0
ssI103
(dp2973
g4
F1181.0
sg5
F4330.0
ssI105
(dp2974
g4
F7671.0
sg5
F7851.0
ssI107
(dp2975
g4
F7371.0
sg5
F7300.0
ssI109
(dp2976
g4
F15530.0
sg5
F2919.0
ssI111
(dp2977
g4
F4135.0
sg5
F1220.0
ssI157
(dp2978
g4
F1305.0
sg5
F2826.0
ssI113
(dp2979
g4
F7748.0
sg5
F7636.0
ssI115
(dp2980
g4
F9442.0
sg5
F2123.0
ssI117
(dp2981
g4
F7647.0
sg5
F2067.0
ssI119
(dp2982
g4
F998.0
sg5
F2303.0
ssI153
(dp2983
g4
F5957.0
sg5
F3493.0
ssI121
(dp2984
g4
F46168.0
sg5
F13741.0
ssI123
(dp2985
g4
F5742.0
sg5
F3999.0
ssI125
(dp2986
g4
F619.0
sg5
F1290.0
ssI127
(dp2987
g4
F6709.0
sg5
F3640.0
sssS'SC'
p2988
(dp2989
I0
(dp2990
g4
F2409974.0
sg5
F1547740.0
ssI1
(dp2991
g4
F13389.0
sg5
F7257.0
ssI3
(dp2992
g4
F93251.0
sg5
F49082.0
ssI5
(dp2993
g4
F1581.0
sg5
F5256.0
ssI7
(dp2994
g4
F113663.0
sg5
F39635.0
ssI9
(dp2995
g4
F4346.0
sg5
F7699.0
ssI11
(dp2996
g4
F9680.0
sg5
F8620.0
ssI13
(dp2997
g4
F84679.0
sg5
F54138.0
ssI15
(dp2998
g4
F94252.0
sg5
F55752.0
ssI17
(dp2999
g4
F7618.0
sg5
F6930.0
ssI19
(dp3000
g4
F172170.0
sg5
F160498.0
ssI21
(dp3001
g4
F29728.0
sg5
F11989.0
ssI23
(dp3002
g4
F13927.0
sg5
F13161.0
ssI25
(dp3003
g4
F18739.0
sg5
F14156.0
ssI27
(dp3004
g4
F14587.0
sg5
F14752.0
ssI29
(dp3005
g4
F18501.0
sg5
F14319.0
ssI31
(dp3006
g4
F30218.0
sg5
F26910.0
ssI33
(dp3007
g4
F11380.0
sg5
F10800.0
ssI35
(dp3008
g4
F74786.0
sg5
F43982.0
ssI37
(dp3009
g4
F13504.0
sg5
F8811.0
ssI39
(dp3010
g4
F8282.0
sg5
F13270.0
ssI41
(dp3011
g4
F60877.0
sg5
F50881.0
ssI43
(dp3012
g4
F36012.0
sg5
F25040.0
ssI45
(dp3013
g4
F264957.0
sg5
F135754.0
ssI47
(dp3014
g4
F34371.0
sg5
F20351.0
ssI49
(dp3015
g4
F6744.0
sg5
F9988.0
ssI51
(dp3016
g4
F168653.0
sg5
F69536.0
ssI53
(dp3017
g4
F12200.0
sg5
F14484.0
ssI55
(dp3018
g4
F35337.0
sg5
F19739.0
ssI57
(dp3019
g4
F46688.0
sg5
F26970.0
ssI59
(dp3020
g4
F33772.0
sg5
F16606.0
ssI61
(dp3021
g4
F5501.0
sg5
F10141.0
ssI63
(dp3022
g4
F165078.0
sg5
F65068.0
ssI65
(dp3023
g4
F5350.0
sg5
F4720.0
ssI67
(dp3024
g4
F10919.0
sg5
F16393.0
ssI69
(dp3025
g4
F8385.0
sg5
F11617.0
ssI71
(dp3026
g4
F20053.0
sg5
F11980.0
ssI73
(dp3027
g4
F49273.0
sg5
F14678.0
ssI75
(dp3028
g4
F24142.0
sg5
F51583.0
ssI77
(dp3029
g4
F73681.0
sg5
F19157.0
ssI79
(dp3030
g4
F119822.0
sg5
F203836.0
ssI81
(dp3031
g4
F10967.0
sg5
F5497.0
ssI83
(dp3032
g4
F155407.0
sg5
F75027.0
ssI85
(dp3033
g4
F38181.0
sg5
F46914.0
ssI87
(dp3034
g4
F13783.0
sg5
F9238.0
ssI89
(dp3035
g4
F9999.0
sg5
F19125.0
ssI91
(dp3036
g4
F134022.0
sg5
F80130.0
sssS'KY'
p3037
(dp3038
I0
(dp3039
g4
F3068151.0
sg5
F1958943.0
ssI1
(dp3040
g4
F12534.0
sg5
F3395.0
ssI3
(dp3041
g4
F12445.0
sg5
F3289.0
ssI5
(dp3042
g4
F15152.0
sg5
F7109.0
ssI7
(dp3043
g4
F5886.0
sg5
F2183.0
ssI9
(dp3044
g4
F24359.0
sg5
F11735.0
ssI11
(dp3045
g4
F5406.0
sg5
F3515.0
ssI13
(dp3046
g4
F14401.0
sg5
F4358.0
ssI15
(dp3047
g4
F81114.0
sg5
F30329.0
ssI17
(dp3048
g4
F9980.0
sg5
F7141.0
ssI19
(dp3049
g4
F24321.0
sg5
F15557.0
ssI21
(dp3050
g4
F15022.0
sg5
F10218.0
ssI23
(dp3051
g4
F5199.0
sg5
F1669.0
ssI25
(dp3052
g4
F6845.0
sg5
F4209.0
ssI27
(dp3053
g4
F11897.0
sg5
F5193.0
ssI29
(dp3054
g4
F49232.0
sg5
F20874.0
ssI31
(dp3055
g4
F8483.0
sg5
F2391.0
ssI33
(dp3056
g4
F8394.0
sg5
F3297.0
ssI35
(dp3057
g4
F20215.0
sg5
F10903.0
ssI37
(dp3058
g4
F52468.0
sg5
F29584.0
ssI39
(dp3059
g4
F3907.0
sg5
F1201.0
ssI41
(dp3060
g4
F4781.0
sg5
F2731.0
ssI43
(dp3061
g4
F13227.0
sg5
F6704.0
ssI45
(dp3062
g4
F10271.0
sg5
F2285.0
ssI47
(dp3063
g4
F28182.0
sg5
F14863.0
ssI49
(dp3064
g4
F19733.0
sg5
F11826.0
ssI51
(dp3065
g4
F10778.0
sg5
F2258.0
ssI53
(dp3066
g4
F7322.0
sg5
F1226.0
ssI55
(dp3067
g4
F6167.0
sg5
F1707.0
ssI57
(dp3068
g4
F4763.0
sg5
F1090.0
ssI59
(dp3069
g4
F55559.0
sg5
F32931.0
ssI61
(dp3070
g4
F7688.0
sg5
F2627.0
ssI63
(dp3071
g4
F3157.0
sg5
F2217.0
ssI65
(dp3072
g4
F7764.0
sg5
F3028.0
ssI67
(dp3073
g4
F110954.0
sg5
F152177.0
ssI69
(dp3074
g4
F8319.0
sg5
F3903.0
ssI71
(dp3075
g4
F20075.0
sg5
F11630.0
ssI73
(dp3076
g4
F21819.0
sg5
F24577.0
ssI75
(dp3077
g4
F2871.0
sg5
F1803.0
ssI77
(dp3078
g4
F4801.0
sg5
F1688.0
ssI79
(dp3079
g4
F10938.0
sg5
F3968.0
ssI81
(dp3080
g4
F14393.0
sg5
F4244.0
ssI83
(dp3081
g4
F23667.0
sg5
F8702.0
ssI85
(dp3082
g4
F15316.0
sg5
F5266.0
ssI87
(dp3083
g4
F8060.0
sg5
F2291.0
ssI89
(dp3084
g4
F20492.0
sg5
F11274.0
ssI91
(dp3085
g4
F5171.0
sg5
F3086.0
ssI93
(dp3086
g4
F51861.0
sg5
F31990.0
ssI95
(dp3087
g4
F16584.0
sg5
F4027.0
ssI97
(dp3088
g4
F9660.0
sg5
F5503.0
ssI99
(dp3089
g4
F9824.0
sg5
F4377.0
ssI101
(dp3090
g4
F22818.0
sg5
F15589.0
ssI103
(dp3091
g4
F9244.0
sg5
F4622.0
ssI105
(dp3092
g4
F3066.0
sg5
F1171.0
ssI107
(dp3093
g4
F28902.0
sg5
F10767.0
ssI109
(dp3094
g4
F9153.0
sg5
F1451.0
ssI111
(dp3095
g4
F288377.0
sg5
F398421.0
ssI113
(dp3096
g4
F29295.0
sg5
F15606.0
ssI115
(dp3097
g4
F14230.0
sg5
F4218.0
ssI117
(dp3098
g4
F90333.0
sg5
F48583.0
ssI119
(dp3099
g4
F7442.0
sg5
F3614.0
ssI121
(dp3100
g4
F18047.0
sg5
F5083.0
ssI123
(dp3101
g4
F8910.0
sg5
F3463.0
ssI125
(dp3102
g4
F38808.0
sg5
F9505.0
ssI127
(dp3103
g4
F8468.0
sg5
F3263.0
ssI129
(dp3104
g4
F3839.0
sg5
F1342.0
ssI131
(dp3105
g4
F7590.0
sg5
F1079.0
ssI133
(dp3106
g4
F12657.0
sg5
F4717.0
ssI135
(dp3107
g4
F7932.0
sg5
F2219.0
ssI137
(dp3108
g4
F13482.0
sg5
F5129.0
ssI139
(dp3109
g4
F6633.0
sg5
F2401.0
ssI141
(dp3110
g4
F15333.0
sg5
F5969.0
ssI143
(dp3111
g4
F5220.0
sg5
F2553.0
ssI145
(dp3112
g4
F40473.0
sg5
F20686.0
ssI147
(dp3113
g4
F9315.0
sg5
F1902.0
ssI149
(dp3114
g4
F6201.0
sg5
F2669.0
ssI151
(dp3115
g4
F44248.0
sg5
F28232.0
ssI153
(dp3116
g4
F6580.0
sg5
F3343.0
ssI155
(dp3117
g4
F9009.0
sg5
F6765.0
ssI157
(dp3118
g4
F22957.0
sg5
F9703.0
ssI159
(dp3119
g4
F6317.0
sg5
F1272.0
ssI161
(dp3120
g4
F9396.0
sg5
F4610.0
ssI163
(dp3121
g4
F15703.0
sg5
F8095.0
ssI165
(dp3122
g4
F3524.0
sg5
F1901.0
ssI167
(dp3123
g4
F14105.0
sg5
F6508.0
ssI169
(dp3124
g4
F6336.0
sg5
F2636.0
ssI171
(dp3125
g4
F8120.0
sg5
F1482.0
ssI173
(dp3126
g4
F14076.0
sg5
F8270.0
ssI175
(dp3127
g4
F6230.0
sg5
F3016.0
ssI177
(dp3128
g4
F16747.0
sg5
F8761.0
ssI179
(dp3129
g4
F25176.0
sg5
F15266.0
ssI181
(dp3130
g4
F3322.0
sg5
F2221.0
ssI183
(dp3131
g4
F14684.0
sg5
F5585.0
ssI185
(dp3132
g4
F41719.0
sg5
F21986.0
ssI187
(dp3133
g4
F7133.0
sg5
F2589.0
ssI189
(dp3134
g4
F2634.0
sg5
F737.0
ssI191
(dp3135
g4
F8980.0
sg5
F2657.0
ssI193
(dp3136
g4
F14468.0
sg5
F6016.0
ssI195
(dp3137
g4
F34161.0
sg5
F13571.0
ssI197
(dp3138
g4
F6177.0
sg5
F3497.0
ssI199
(dp3139
g4
F42871.0
sg5
F11856.0
ssI201
(dp3140
g4
F1409.0
sg5
F566.0
ssI203
(dp3141
g4
F10498.0
sg5
F2529.0
ssI205
(dp3142
g4
F9297.0
sg5
F7920.0
ssI207
(dp3143
g4
F12767.0
sg5
F3154.0
ssI209
(dp3144
g4
F28392.0
sg5
F18546.0
ssI211
(dp3145
g4
F25673.0
sg5
F14287.0
ssI213
(dp3146
g4
F9896.0
sg5
F4762.0
ssI215
(dp3147
g4
F13643.0
sg5
F4910.0
ssI217
(dp3148
g4
F15596.0
sg5
F6414.0
ssI219
(dp3149
g4
F7126.0
sg5
F2212.0
ssI221
(dp3150
g4
F9678.0
sg5
F3498.0
ssI223
(dp3151
g4
F5097.0
sg5
F2313.0
ssI225
(dp3152
g4
F8541.0
sg5
F3633.0
ssI227
(dp3153
g4
F57861.0
sg5
F36157.0
ssI229
(dp3154
g4
F7378.0
sg5
F3611.0
ssI231
(dp3155
g4
F11528.0
sg5
F3965.0
ssI233
(dp3156
g4
F8109.0
sg5
F3236.0
ssI235
(dp3157
g4
F21060.0
sg5
F5862.0
ssI237
(dp3158
g4
F3111.0
sg5
F2021.0
ssI239
(dp3159
g4
F14535.0
sg5
F11714.0
sssS'OR'
p3160
(dp3161
I0
(dp3162
g4
F671215.0
sg5
F694185.0
ssI1
(dp3163
g4
F6160.0
sg5
F1781.0
ssI3
(dp3164
g4
F13030.0
sg5
F28431.0
ssI5
(dp3165
g4
F79062.0
sg5
F90187.0
ssI7
(dp3166
g4
F7794.0
sg5
F8899.0
ssI9
(dp3167
g4
F12967.0
sg5
F9959.0
ssI11
(dp3168
g4
F17699.0
sg5
F10355.0
ssI13
(dp3169
g4
F8388.0
sg5
F2591.0
ssI15
(dp3170
g4
F7157.0
sg5
F4253.0
ssI17
(dp3171
g4
F26251.0
sg5
F25182.0
ssI19
(dp3172
g4
F34112.0
sg5
F13891.0
ssI21
(dp3173
g4
F632.0
sg5
F221.0
ssI23
(dp3174
g4
F3187.0
sg5
F732.0
ssI25
(dp3175
g4
F2904.0
sg5
F682.0
ssI27
(dp3176
g4
F3223.0
sg5
F6359.0
ssI29
(dp3177
g4
F53083.0
sg5
F43550.0
ssI31
(dp3178
g4
F5337.0
sg5
F2892.0
ssI33
(dp3179
g4
F26582.0
sg5
F13223.0
ssI35
(dp3180
g4
F20170.0
sg5
F7080.0
ssI37
(dp3181
g4
F3001.0
sg5
F628.0
ssI39
(dp3182
g4
F66218.0
sg5
F100497.0
ssI41
(dp3183
g4
F9901.0
sg5
F12300.0
ssI43
(dp3184
g4
F32683.0
sg5
F17456.0
ssI45
(dp3185
g4
F7141.0
sg5
F2213.0
ssI47
(dp3186
g4
F54336.0
sg5
F48803.0
ssI49
(dp3187
g4
F2698.0
sg5
F1004.0
ssI51
(dp3188
g4
F63055.0
sg5
F271754.0
ssI53
(dp3189
g4
F18333.0
sg5
F15741.0
ssI55
(dp3190
g4
F726.0
sg5
F202.0
ssI57
(dp3191
g4
F6486.0
sg5
F5701.0
ssI59
(dp3192
g4
F16775.0
sg5
F7466.0
ssI61
(dp3193
g4
F8378.0
sg5
F3221.0
ssI63
(dp3194
g4
F2825.0
sg5
F1097.0
ssI65
(dp3195
g4
F5721.0
sg5
F4634.0
ssI67
(dp3196
g4
F75903.0
sg5
F137818.0
ssI69
(dp3197
g4
F583.0
sg5
F153.0
ssI71
(dp3198
g4
F22589.0
sg5
F18635.0
sssS'SD'
p3199
(dp3200
I0
(dp3201
g4
F502635.0
sg5
F236917.0
ssI129
(dp3202
g4
F3871.0
sg5
F939.0
ssI3
(dp3203
g4
F2047.0
sg5
F683.0
ssI5
(dp3204
g4
F9504.0
sg5
F3721.0
ssI7
(dp3205
g4
F1424.0
sg5
F794.0
ssI9
(dp3206
g4
F4358.0
sg5
F1474.0
ssI11
(dp3207
g4
F15565.0
sg5
F8826.0
ssI13
(dp3208
g4
F20984.0
sg5
F10245.0
ssI15
(dp3209
g4
F3311.0
sg5
F1125.0
ssI17
(dp3210
g4
F403.0
sg5
F553.0
ssI19
(dp3211
g4
F6900.0
sg5
F1448.0
ssI21
(dp3212
g4
F1444.0
sg5
F192.0
ssI23
(dp3213
g4
F4866.0
sg5
F1876.0
ssI137
(dp3214
g4
F789.0
sg5
F696.0
ssI25
(dp3215
g4
F2408.0
sg5
F806.0
ssI27
(dp3216
g4
F5032.0
sg5
F4769.0
ssI29
(dp3217
g4
F16504.0
sg5
F6177.0
ssI31
(dp3218
g4
F1268.0
sg5
F1009.0
ssI33
(dp3219
g4
F6818.0
sg5
F2297.0
ssI35
(dp3220
g4
F11174.0
sg5
F4345.0
ssI37
(dp3221
g4
F3442.0
sg5
F1936.0
ssI39
(dp3222
g4
F2929.0
sg5
F1104.0
ssI41
(dp3223
g4
F1585.0
sg5
F1719.0
ssI43
(dp3224
g4
F2715.0
sg5
F442.0
ssI45
(dp3225
g4
F2950.0
sg5
F776.0
ssI47
(dp3226
g4
F5182.0
sg5
F1689.0
ssI49
(dp3227
g4
F1783.0
sg5
F410.0
ssI51
(dp3228
g4
F5084.0
sg5
F1860.0
ssI53
(dp3229
g4
F3271.0
sg5
F817.0
ssI55
(dp3230
g4
F1892.0
sg5
F161.0
ssI57
(dp3231
g4
F4304.0
sg5
F1091.0
ssI59
(dp3232
g4
F2908.0
sg5
F669.0
ssI61
(dp3233
g4
F3009.0
sg5
F875.0
ssI63
(dp3234
g4
F1377.0
sg5
F112.0
ssI65
(dp3235
g4
F11512.0
sg5
F4339.0
ssI67
(dp3236
g4
F5296.0
sg5
F1301.0
ssI69
(dp3237
g4
F1110.0
sg5
F249.0
ssI71
(dp3238
g4
F1493.0
sg5
F632.0
ssI73
(dp3239
g4
F1368.0
sg5
F525.0
ssI75
(dp3240
g4
F944.0
sg5
F136.0
ssI77
(dp3241
g4
F3579.0
sg5
F1377.0
ssI79
(dp3242
g4
F8715.0
sg5
F4345.0
ssI81
(dp3243
g4
F15977.0
sg5
F6623.0
ssI83
(dp3244
g4
F34763.0
sg5
F14119.0
ssI85
(dp3245
g4
F2028.0
sg5
F747.0
ssI87
(dp3246
g4
F3815.0
sg5
F1222.0
ssI89
(dp3247
g4
F1901.0
sg5
F357.0
ssI91
(dp3248
g4
F2397.0
sg5
F1383.0
ssI135
(dp3249
g4
F12190.0
sg5
F6389.0
ssI93
(dp3250
g4
F17639.0
sg5
F4571.0
ssI95
(dp3251
g4
F866.0
sg5
F462.0
ssI97
(dp3252
g4
F1513.0
sg5
F565.0
ssI99
(dp3253
g4
F94537.0
sg5
F55969.0
ssI101
(dp3254
g4
F3710.0
sg5
F2012.0
ssI102
(dp3255
g4
F894.0
sg5
F4714.0
ssI103
(dp3256
g4
F63770.0
sg5
F27280.0
ssI105
(dp3257
g4
F2707.0
sg5
F419.0
ssI107
(dp3258
g4
F2156.0
sg5
F468.0
ssI109
(dp3259
g4
F4689.0
sg5
F2915.0
ssI111
(dp3260
g4
F1708.0
sg5
F485.0
ssI115
(dp3261
g4
F4031.0
sg5
F1735.0
ssI117
(dp3262
g4
F2402.0
sg5
F632.0
ssI119
(dp3263
g4
F1397.0
sg5
F273.0
ssI121
(dp3264
g4
F1211.0
sg5
F2881.0
ssI123
(dp3265
g4
F4203.0
sg5
F954.0
ssI125
(dp3266
g4
F6226.0
sg5
F1832.0
ssI127
(dp3267
g4
F11347.0
sg5
F4020.0
sss.