(dp0
S'WA'
p1
(dp2
I0
F0.44099999999999995
sI1
F0.6779999999999999
sI3
F0.596
sI5
F0.647
sI7
F0.596
sI9
F0.511
sI11
F0.511
sI13
F0.7150000000000001
sI15
F0.49
sI17
F0.656
sI19
F0.624
sI21
F0.637
sI23
F0.737
sI25
F0.677
sI27
F0.44399999999999995
sI29
F0.49
sI31
F0.36
sI33
F0.31200000000000006
sI35
F0.45699999999999996
sI37
F0.5740000000000001
sI39
F0.5569999999999999
sI41
F0.629
sI43
F0.716
sI45
F0.478
sI47
F0.589
sI49
F0.45699999999999996
sI51
F0.624
sI53
F0.45699999999999996
sI55
F0.32899999999999996
sI57
F0.483
sI59
F0.52
sI61
F0.43100000000000005
sI63
F0.5449999999999999
sI65
F0.652
sI67
F0.41900000000000004
sI69
F0.523
sI71
F0.623
sI73
F0.45399999999999996
sI75
F0.5349999999999999
sI77
F0.585
ssS'DE'
p3
(dp4
I0
F0.41400000000000003
sI1
F0.483
sI3
F0.33699999999999997
sI5
F0.571
ssS'DC'
p5
(dp6
I0
F0.08599999999999997
ssS'WI'
p7
(dp8
I0
F0.472
sI1
F0.45999999999999996
sI3
F0.354
sI5
F0.518
sI7
F0.383
sI9
F0.514
sI11
F0.491
sI13
F0.5389999999999999
sI15
F0.5640000000000001
sI141
F0.522
sI17
F0.508
sI19
F0.5509999999999999
sI21
F0.43700000000000006
sI23
F0.40700000000000003
sI137
F0.556
sI25
F0.28900000000000003
sI27
F0.5780000000000001
sI29
F0.47
sI31
F0.35
sI133
F0.6779999999999999
sI33
F0.484
sI35
F0.43899999999999995
sI37
F0.636
sI39
F0.5800000000000001
sI129
F0.52
sI41
F0.479
sI43
F0.43799999999999994
sI45
F0.42000000000000004
sI47
F0.608
sI49
F0.353
sI51
F0.507
sI53
F0.43000000000000005
sI55
F0.544
sI57
F0.471
sI59
F0.44399999999999995
sI61
F0.532
sI63
F0.42000000000000004
sI65
F0.42800000000000005
sI67
F0.5640000000000001
sI69
F0.502
sI71
F0.52
sI73
F0.536
sI75
F0.524
sI77
F0.482
sI78
F0.134
sI79
F0.33199999999999996
sI81
F0.51
sI83
F0.5529999999999999
sI139
F0.489
sI85
F0.516
sI87
F0.516
sI89
F0.657
sI91
F0.493
sI135
F0.552
sI93
F0.512
sI95
F0.5529999999999999
sI97
F0.43700000000000006
sI99
F0.507
sI131
F0.7050000000000001
sI101
F0.486
sI103
F0.42500000000000004
sI105
F0.389
sI107
F0.527
sI109
F0.5680000000000001
sI111
F0.41200000000000003
sI113
F0.502
sI115
F0.5549999999999999
sI117
F0.552
sI119
F0.604
sI121
F0.43500000000000005
sI123
F0.43500000000000005
sI125
F0.5700000000000001
sI127
F0.5680000000000001
ssS'WV'
p9
(dp10
I0
F0.645
sI1
F0.6930000000000001
sI3
F0.616
sI5
F0.671
sI7
F0.583
sI9
F0.5680000000000001
sI11
F0.579
sI13
F0.629
sI15
F0.692
sI17
F0.792
sI19
F0.616
sI21
F0.6659999999999999
sI23
F0.844
sI25
F0.636
sI27
F0.712
sI29
F0.619
sI31
F0.7130000000000001
sI33
F0.628
sI35
F0.6659999999999999
sI37
F0.531
sI39
F0.5680000000000001
sI41
F0.725
sI43
F0.673
sI45
F0.7090000000000001
sI47
F0.6599999999999999
sI49
F0.5840000000000001
sI51
F0.655
sI53
F0.615
sI55
F0.745
sI57
F0.737
sI59
F0.725
sI61
F0.5609999999999999
sI63
F0.72
sI65
F0.6639999999999999
sI67
F0.696
sI69
F0.622
sI71
F0.669
sI73
F0.6639999999999999
sI75
F0.635
sI77
F0.737
sI79
F0.694
sI81
F0.732
sI83
F0.6579999999999999
sI85
F0.7969999999999999
sI87
F0.616
sI89
F0.6579999999999999
sI91
F0.6719999999999999
sI93
F0.719
sI95
F0.729
sI97
F0.738
sI99
F0.647
sI101
F0.6579999999999999
sI103
F0.622
sI105
F0.6890000000000001
sI107
F0.671
sI109
F0.79
ssS'HI'
p11
(dp12
I0
F0.891
sI9
F0.259
sI3
F0.31100000000000005
sI7
F0.265
ssS'NH'
p13
(dp14
I0
F0.478
sI1
F0.469
sI3
F0.5680000000000001
sI5
F0.373
sI7
F0.43899999999999995
sI9
F0.41300000000000003
sI11
F0.622
sI13
F0.42900000000000005
sI15
F0.641
sI17
F0.502
sI19
F0.531
ssS'NJ'
p15
(dp16
I0
F0.42000000000000004
sI1
F0.41900000000000004
sI3
F0.44999999999999996
sI5
F0.41200000000000003
sI7
F0.32199999999999995
sI9
F0.55
sI11
F0.39
sI13
F0.22599999999999998
sI15
F0.45399999999999996
sI17
F0.22599999999999998
sI19
F0.6
sI21
F0.32199999999999995
sI23
F0.371
sI25
F0.5329999999999999
sI27
F0.563
sI29
F0.594
sI31
F0.368
sI33
F0.504
sI35
F0.48
sI37
F0.621
sI39
F0.33699999999999997
sI41
F0.587
ssS'NM'
p17
(dp18
I0
F0.471
sI1
F0.44399999999999995
sI3
F0.735
sI5
F0.677
sI6
F0.398
sI7
F0.512
sI9
F0.706
sI11
F0.681
sI13
F0.43999999999999995
sI15
F0.6819999999999999
sI17
F0.44999999999999996
sI19
F0.29800000000000004
sI21
F0.567
sI23
F0.485
sI25
F0.76
sI27
F0.6819999999999999
sI28
F0.513
sI29
F0.522
sI31
F0.279
sI33
F0.25
sI35
F0.6579999999999999
sI37
F0.626
sI39
F0.253
sI41
F0.7110000000000001
sI43
F0.497
sI45
F0.659
sI47
F0.23099999999999998
sI49
F0.266
sI51
F0.615
sI53
F0.43799999999999994
sI55
F0.21899999999999997
sI57
F0.621
sI59
F0.731
sI61
F0.513
ssS'TX'
p19
(dp20
I0
F0.5860000000000001
sI1
F0.765
sI3
F0.823
sI5
F0.724
sI7
F0.72
sI9
F0.874
sI11
F0.895
sI13
F0.596
sI15
F0.806
sI17
F0.743
sI19
F0.8029999999999999
sI21
F0.597
sI23
F0.832
sI25
F0.562
sI27
F0.5880000000000001
sI29
F0.484
sI31
F0.755
sI33
F0.912
sI35
F0.8140000000000001
sI37
F0.712
sI39
F0.677
sI41
F0.688
sI43
F0.5429999999999999
sI45
F0.833
sI47
F0.21499999999999997
sI49
F0.863
sI51
F0.736
sI53
F0.781
sI55
F0.567
sI57
F0.628
sI59
F0.855
sI61
F0.34299999999999997
sI63
F0.6699999999999999
sI65
F0.895
sI67
F0.752
sI69
F0.7030000000000001
sI71
F0.8109999999999999
sI73
F0.76
sI75
F0.84
sI77
F0.854
sI79
F0.721
sI81
F0.873
sI83
F0.873
sI85
F0.665
sI87
F0.846
sI89
F0.75
sI91
F0.778
sI93
F0.8180000000000001
sI95
F0.806
sI97
F0.843
sI99
F0.6890000000000001
sI101
F0.756
sI103
F0.786
sI105
F0.671
sI107
F0.642
sI109
F0.354
sI111
F0.835
sI113
F0.42900000000000005
sI115
F0.721
sI117
F0.712
sI119
F0.775
sI121
F0.667
sI123
F0.779
sI125
F0.788
sI127
F0.266
sI129
F0.853
sI131
F0.23299999999999998
sI133
F0.851
sI135
F0.75
sI137
F0.737
sI139
F0.743
sI141
F0.344
sI143
F0.842
sI145
F0.626
sI147
F0.77
sI149
F0.781
sI151
F0.6859999999999999
sI153
F0.736
sI155
F0.716
sI157
F0.5389999999999999
sI159
F0.8240000000000001
sI161
F0.756
sI163
F0.401
sI165
F0.868
sI167
F0.641
sI169
F0.823
sI171
F0.836
sI173
F0.924
sI175
F0.6739999999999999
sI177
F0.706
sI179
F0.88
sI181
F0.747
sI183
F0.702
sI185
F0.728
sI187
F0.6819999999999999
sI189
F0.746
sI191
F0.761
sI193
F0.834
sI195
F0.919
sI197
F0.798
sI199
F0.842
sI201
F0.506
sI203
F0.677
sI205
F0.904
sI207
F0.725
sI209
F0.567
sI211
F0.873
sI213
F0.779
sI215
F0.29600000000000004
sI217
F0.772
sI219
F0.792
sI221
F0.829
sI223
F0.782
sI225
F0.725
sI227
F0.7969999999999999
sI229
F0.56
sI231
F0.762
sI233
F0.868
sI235
F0.858
sI237
F0.896
sI239
F0.787
sI241
F0.747
sI243
F0.63
sI245
F0.496
sI247
F0.21999999999999997
sI249
F0.41800000000000004
sI251
F0.785
sI253
F0.78
sI255
F0.683
sI257
F0.727
sI259
F0.829
sI261
F0.506
sI263
F0.837
sI265
F0.802
sI267
F0.885
sI269
F0.966
sI271
F0.634
sI273
F0.46599999999999997
sI275
F0.78
sI277
F0.757
sI279
F0.756
sI281
F0.796
sI283
F0.41400000000000003
sI285
F0.8280000000000001
sI287
F0.738
sI289
F0.847
sI291
F0.771
sI293
F0.708
sI295
F0.898
sI297
F0.777
sI299
F0.8089999999999999
sI301
F0.859
sI303
F0.712
sI305
F0.749
sI307
F0.821
sI309
F0.655
sI311
F0.868
sI313
F0.76
sI315
F0.652
sI317
F0.845
sI319
F0.8069999999999999
sI321
F0.6719999999999999
sI323
F0.21399999999999997
sI325
F0.702
sI327
F0.7989999999999999
sI329
F0.8140000000000001
sI331
F0.6799999999999999
sI333
F0.873
sI335
F0.768
sI337
F0.856
sI339
F0.81
sI341
F0.8069999999999999
sI343
F0.638
sI345
F0.908
sI347
F0.687
sI349
F0.716
sI351
F0.722
sI353
F0.734
sI355
F0.523
sI357
F0.915
sI359
F0.918
sI361
F0.777
sI363
F0.806
sI365
F0.784
sI367
F0.835
sI369
F0.793
sI371
F0.616
sI373
F0.746
sI375
F0.731
sI377
F0.29600000000000004
sI379
F0.815
sI381
F0.848
sI383
F0.813
sI385
F0.819
sI387
F0.708
sI389
F0.42500000000000004
sI391
F0.627
sI393
F0.943
sI395
F0.616
sI397
F0.772
sI399
F0.859
sI401
F0.76
sI403
F0.8240000000000001
sI405
F0.677
sI407
F0.749
sI409
F0.609
sI411
F0.857
sI413
F0.782
sI415
F0.833
sI417
F0.904
sI419
F0.75
sI421
F0.883
sI423
F0.739
sI425
F0.8260000000000001
sI427
F0.136
sI429
F0.861
sI431
F0.937
sI433
F0.763
sI435
F0.752
sI437
F0.744
sI439
F0.5860000000000001
sI441
F0.775
sI443
F0.667
sI445
F0.714
sI447
F0.866
sI449
F0.7
sI451
F0.747
sI453
F0.398
sI455
F0.741
sI457
F0.782
sI459
F0.804
sI461
F0.744
sI463
F0.546
sI465
F0.479
sI467
F0.838
sI469
F0.6950000000000001
sI471
F0.649
sI473
F0.5920000000000001
sI475
F0.742
sI477
F0.765
sI479
F0.23399999999999999
sI481
F0.6990000000000001
sI483
F0.891
sI485
F0.744
sI487
F0.756
sI489
F0.28900000000000003
sI491
F0.621
sI493
F0.72
sI495
F0.772
sI497
F0.844
sI499
F0.8260000000000001
sI501
F0.808
sI503
F0.864
sI505
F0.28700000000000003
sI507
F0.16700000000000004
ssS'LA'
p21
(dp22
I0
F0.594
sI1
F0.756
sI3
F0.719
sI5
F0.6799999999999999
sI7
F0.567
sI9
F0.643
sI11
F0.8009999999999999
sI13
F0.515
sI15
F0.733
sI17
F0.481
sI19
F0.653
sI21
F0.785
sI23
F0.891
sI25
F0.6639999999999999
sI27
F0.552
sI29
F0.591
sI31
F0.575
sI33
F0.482
sI35
F0.33699999999999997
sI37
F0.5449999999999999
sI39
F0.6619999999999999
sI41
F0.687
sI43
F0.836
sI45
F0.637
sI47
F0.43899999999999995
sI49
F0.694
sI51
F0.602
sI53
F0.746
sI55
F0.6779999999999999
sI57
F0.754
sI59
F0.884
sI61
F0.581
sI63
F0.862
sI65
F0.392
sI67
F0.5329999999999999
sI69
F0.54
sI71
F0.19699999999999995
sI73
F0.611
sI75
F0.649
sI77
F0.552
sI79
F0.655
sI81
F0.531
sI83
F0.646
sI85
F0.782
sI87
F0.638
sI89
F0.649
sI91
F0.403
sI93
F0.43100000000000005
sI95
F0.376
sI97
F0.528
sI99
F0.63
sI101
F0.6
sI103
F0.772
sI105
F0.646
sI107
F0.44399999999999995
sI109
F0.7150000000000001
sI111
F0.714
sI113
F0.771
sI115
F0.7969999999999999
sI117
F0.649
sI119
F0.631
sI121
F0.554
sI123
F0.812
sI125
F0.577
sI127
F0.706
ssS'NC'
p23
(dp24
I0
F0.516
sI1
F0.575
sI3
F0.731
sI5
F0.687
sI7
F0.377
sI9
F0.6719999999999999
sI11
F0.757
sI13
F0.599
sI15
F0.34199999999999997
sI17
F0.494
sI19
F0.615
sI21
F0.44499999999999995
sI23
F0.624
sI25
F0.606
sI27
F0.6859999999999999
sI29
F0.6779999999999999
sI31
F0.71
sI33
F0.517
sI35
F0.653
sI37
F0.481
sI39
F0.737
sI41
F0.528
sI43
F0.719
sI45
F0.607
sI47
F0.5429999999999999
sI49
F0.593
sI51
F0.405
sI53
F0.6839999999999999
sI55
F0.5880000000000001
sI57
F0.71
sI59
F0.723
sI61
F0.562
sI63
F0.241
sI65
F0.31999999999999995
sI67
F0.46799999999999997
sI69
F0.525
sI71
F0.633
sI73
F0.483
sI75
F0.7150000000000001
sI77
F0.481
sI79
F0.5409999999999999
sI81
F0.42200000000000004
sI83
F0.34199999999999997
sI85
F0.602
sI87
F0.5760000000000001
sI89
F0.644
sI91
F0.281
sI93
F0.41000000000000003
sI95
F0.509
sI97
F0.657
sI99
F0.514
sI101
F0.644
sI103
F0.55
sI105
F0.556
sI107
F0.51
sI109
F0.6990000000000001
sI111
F0.665
sI113
F0.6599999999999999
sI115
F0.554
sI117
F0.481
sI119
F0.392
sI121
F0.764
sI123
F0.581
sI125
F0.644
sI127
F0.498
sI129
F0.529
sI131
F0.32699999999999996
sI133
F0.64
sI135
F0.29600000000000004
sI137
F0.608
sI139
F0.42500000000000004
sI141
F0.607
sI143
F0.585
sI145
F0.5589999999999999
sI147
F0.47
sI149
F0.613
sI151
F0.756
sI153
F0.49
sI155
F0.42100000000000004
sI157
F0.611
sI159
F0.635
sI161
F0.673
sI163
F0.558
sI165
F0.42000000000000004
sI167
F0.7070000000000001
sI169
F0.721
sI171
F0.6910000000000001
sI173
F0.5409999999999999
sI175
F0.591
sI177
F0.53
sI179
F0.657
sI181
F0.36
sI183
F0.45499999999999996
sI185
F0.32099999999999995
sI187
F0.41000000000000003
sI189
F0.525
sI191
F0.546
sI193
F0.72
sI195
F0.46699999999999997
sI197
F0.764
sI199
F0.577
ssS'ND'
p25
(dp26
I0
F0.611
sI1
F0.744
sI3
F0.563
sI5
F0.42600000000000005
sI7
F0.846
sI9
F0.6659999999999999
sI11
F0.762
sI13
F0.773
sI15
F0.673
sI17
F0.527
sI19
F0.602
sI21
F0.6619999999999999
sI23
F0.6679999999999999
sI25
F0.754
sI27
F0.5780000000000001
sI29
F0.794
sI31
F0.639
sI33
F0.8260000000000001
sI35
F0.53
sI37
F0.761
sI39
F0.599
sI41
F0.768
sI43
F0.7
sI45
F0.6619999999999999
sI47
F0.788
sI49
F0.652
sI51
F0.698
sI53
F0.729
sI55
F0.661
sI57
F0.736
sI59
F0.669
sI61
F0.593
sI63
F0.5409999999999999
sI65
F0.722
sI67
F0.614
sI69
F0.6970000000000001
sI71
F0.565
sI73
F0.44399999999999995
sI75
F0.687
sI77
F0.577
sI79
F0.26
sI81
F0.45999999999999996
sI83
F0.8009999999999999
sI85
F0.20899999999999996
sI87
F0.8089999999999999
sI89
F0.757
sI91
F0.499
sI93
F0.622
sI95
F0.5609999999999999
sI97
F0.536
sI99
F0.5820000000000001
sI101
F0.667
sI103
F0.716
sI105
F0.762
ssS'NE'
p27
(dp28
I0
F0.622
sI1
F0.679
sI3
F0.8220000000000001
sI5
F0.885
sI7
F0.863
sI9
F0.904
sI11
F0.78
sI13
F0.64
sI15
F0.8220000000000001
sI17
F0.856
sI19
F0.724
sI21
F0.617
sI23
F0.731
sI25
F0.64
sI27
F0.777
sI29
F0.864
sI31
F0.857
sI33
F0.766
sI35
F0.773
sI37
F0.685
sI39
F0.742
sI41
F0.8029999999999999
sI43
F0.526
sI45
F0.6970000000000001
sI47
F0.719
sI49
F0.788
sI51
F0.6739999999999999
sI53
F0.621
sI55
F0.528
sI57
F0.821
sI59
F0.718
sI61
F0.75
sI63
F0.732
sI65
F0.8089999999999999
sI67
F0.595
sI69
F0.778
sI71
F0.842
sI73
F0.764
sI75
F0.917
sI77
F0.712
sI79
F0.647
sI81
F0.765
sI83
F0.804
sI85
F0.907
sI87
F0.8220000000000001
sI89
F0.8180000000000001
sI91
F0.85
sI93
F0.6799999999999999
sI95
F0.653
sI97
F0.616
sI99
F0.759
sI101
F0.771
sI103
F0.834
sI105
F0.765
sI107
F0.737
sI109
F0.513
sI111
F0.7150000000000001
sI113
F0.842
sI115
F0.8260000000000001
sI117
F0.859
sI119
F0.751
sI121
F0.734
sI123
F0.791
sI125
F0.7030000000000001
sI127
F0.652
sI129
F0.739
sI131
F0.632
sI133
F0.702
sI135
F0.83
sI137
F0.798
sI139
F0.813
sI141
F0.766
sI143
F0.785
sI145
F0.8069999999999999
sI147
F0.679
sI149
F0.869
sI151
F0.538
sI153
F0.627
sI155
F0.679
sI157
F0.698
sI159
F0.683
sI161
F0.841
sI163
F0.636
sI165
F0.863
sI167
F0.769
sI169
F0.724
sI171
F0.897
sI173
F0.42100000000000004
sI175
F0.772
sI177
F0.6930000000000001
sI179
F0.706
sI181
F0.746
sI183
F0.791
sI185
F0.784
ssS'TN'
p29
(dp30
I0
F0.61
sI1
F0.659
sI3
F0.7090000000000001
sI5
F0.638
sI7
F0.7090000000000001
sI9
F0.737
sI11
F0.777
sI13
F0.725
sI15
F0.6859999999999999
sI17
F0.6799999999999999
sI19
F0.768
sI21
F0.6930000000000001
sI23
F0.746
sI25
F0.761
sI27
F0.632
sI29
F0.755
sI31
F0.6950000000000001
sI33
F0.696
sI35
F0.752
sI37
F0.41500000000000004
sI39
F0.694
sI41
F0.6619999999999999
sI43
F0.651
sI45
F0.728
sI47
F0.6579999999999999
sI49
F0.774
sI51
F0.653
sI53
F0.6659999999999999
sI55
F0.652
sI57
F0.77
sI59
F0.74
sI61
F0.612
sI63
F0.739
sI65
F0.587
sI67
F0.768
sI69
F0.475
sI71
F0.765
sI73
F0.743
sI75
F0.396
sI77
F0.75
sI79
F0.659
sI81
F0.645
sI83
F0.5369999999999999
sI85
F0.577
sI87
F0.5840000000000001
sI89
F0.759
sI91
F0.761
sI93
F0.656
sI95
F0.5760000000000001
sI97
F0.538
sI99
F0.722
sI101
F0.692
sI103
F0.752
sI105
F0.771
sI107
F0.742
sI109
F0.731
sI111
F0.775
sI113
F0.5489999999999999
sI115
F0.62
sI117
F0.653
sI119
F0.642
sI121
F0.706
sI123
F0.732
sI125
F0.5609999999999999
sI127
F0.748
sI129
F0.735
sI131
F0.73
sI133
F0.634
sI135
F0.622
sI137
F0.7090000000000001
sI139
F0.694
sI141
F0.694
sI143
F0.752
sI145
F0.7150000000000001
sI147
F0.685
sI149
F0.632
sI151
F0.782
sI153
F0.7110000000000001
sI155
F0.781
sI157
F0.374
sI159
F0.652
sI161
F0.596
sI163
F0.744
sI165
F0.716
sI167
F0.704
sI169
F0.573
sI171
F0.73
sI173
F0.747
sI175
F0.619
sI177
F0.635
sI179
F0.702
sI181
F0.788
sI183
F0.712
sI185
F0.694
sI187
F0.74
sI189
F0.7150000000000001
ssS'NY'
p31
(dp32
I0
F0.374
sI1
F0.356
sI3
F0.637
sI5
F0.08799999999999997
sI7
F0.491
sI9
F0.5760000000000001
sI11
F0.45699999999999996
sI13
F0.55
sI15
F0.522
sI17
F0.528
sI19
F0.38
sI21
F0.45199999999999996
sI23
F0.46599999999999997
sI25
F0.558
sI27
F0.475
sI29
F0.43100000000000005
sI31
F0.43300000000000005
sI33
F0.376
sI35
F0.5609999999999999
sI37
F0.615
sI39
F0.567
sI41
F0.64
sI43
F0.552
sI45
F0.521
sI47
F0.18600000000000005
sI49
F0.55
sI51
F0.5569999999999999
sI53
F0.509
sI55
F0.42200000000000004
sI57
F0.53
sI59
F0.471
sI61
F0.15800000000000003
sI63
F0.506
sI65
F0.5349999999999999
sI67
F0.403
sI69
F0.518
sI71
F0.481
sI73
F0.607
sI75
F0.472
sI77
F0.5
sI79
F0.563
sI81
F0.21199999999999997
sI83
F0.45199999999999996
sI85
F0.501
sI87
F0.472
sI89
F0.42500000000000004
sI91
F0.499
sI93
F0.43300000000000005
sI95
F0.593
sI97
F0.5509999999999999
sI99
F0.46299999999999997
sI101
F0.591
sI103
F0.492
sI105
F0.45599999999999996
sI107
F0.5860000000000001
sI109
F0.31799999999999995
sI111
F0.402
sI113
F0.5
sI115
F0.502
sI117
F0.556
sI119
F0.396
sI121
F0.657
sI123
F0.523
ssS'PA'
p33
(dp34
I0
F0.48
sI1
F0.645
sI3
F0.43400000000000005
sI5
F0.6930000000000001
sI7
F0.54
sI9
F0.779
sI11
F0.511
sI13
F0.6739999999999999
sI15
F0.632
sI17
F0.5
sI19
F0.681
sI21
F0.598
sI23
F0.656
sI25
F0.544
sI27
F0.511
sI29
F0.508
sI31
F0.6890000000000001
sI133
F0.613
sI33
F0.652
sI35
F0.565
sI37
F0.571
sI39
F0.606
sI129
F0.624
sI41
F0.6
sI43
F0.476
sI45
F0.396
sI47
F0.5860000000000001
sI49
F0.42200000000000004
sI51
F0.5469999999999999
sI53
F0.613
sI55
F0.6990000000000001
sI57
F0.789
sI59
F0.595
sI61
F0.694
sI63
F0.602
sI65
F0.734
sI67
F0.733
sI69
F0.369
sI71
F0.603
sI73
F0.5509999999999999
sI75
F0.647
sI77
F0.46799999999999997
sI79
F0.483
sI81
F0.673
sI83
F0.65
sI85
F0.52
sI87
F0.739
sI89
F0.43600000000000005
sI91
F0.43400000000000005
sI93
F0.611
sI95
F0.484
sI97
F0.607
sI99
F0.702
sI131
F0.571
sI101
F0.14800000000000002
sI103
F0.5609999999999999
sI105
F0.737
sI107
F0.575
sI109
F0.688
sI111
F0.722
sI113
F0.65
sI115
F0.616
sI117
F0.683
sI119
F0.625
sI121
F0.64
sI123
F0.589
sI125
F0.573
sI127
F0.612
ssS'CA'
p35
(dp36
I0
F0.40800000000000003
sI1
F0.21499999999999997
sI3
F0.399
sI5
F0.608
sI7
F0.536
sI9
F0.599
sI11
F0.617
sI13
F0.34299999999999997
sI15
F0.5720000000000001
sI17
F0.604
sI19
F0.524
sI21
F0.642
sI23
F0.4
sI25
F0.364
sI27
F0.573
sI29
F0.615
sI31
F0.5920000000000001
sI33
F0.43700000000000006
sI35
F0.7130000000000001
sI37
F0.31100000000000005
sI39
F0.608
sI41
F0.26
sI43
F0.605
sI45
F0.33799999999999997
sI47
F0.483
sI49
F0.721
sI51
F0.477
sI53
F0.34099999999999997
sI55
F0.383
sI57
F0.538
sI59
F0.552
sI61
F0.611
sI63
F0.598
sI65
F0.512
sI67
F0.43000000000000005
sI69
F0.42400000000000004
sI71
F0.484
sI73
F0.485
sI75
F0.16600000000000004
sI77
F0.46499999999999997
sI79
F0.51
sI81
F0.28700000000000003
sI83
F0.42800000000000005
sI85
F0.30200000000000005
sI87
F0.248
sI89
F0.6639999999999999
sI91
F0.634
sI93
F0.594
sI95
F0.371
sI97
F0.29200000000000004
sI99
F0.508
sI101
F0.619
sI103
F0.652
sI105
F0.529
sI107
F0.599
sI109
F0.594
sI111
F0.484
sI113
F0.348
sI115
F0.612
ssS'NV'
p37
(dp38
I0
F0.477
sI1
F0.712
sI3
F0.43600000000000005
sI5
F0.644
sI7
F0.78
sI9
F0.789
sI11
F0.868
sI13
F0.698
sI15
F0.753
sI17
F0.8140000000000001
sI19
F0.656
sI21
F0.5760000000000001
sI23
F0.639
sI33
F0.735
sI27
F0.665
sI29
F0.602
sI510
F0.5589999999999999
sI31
F0.493
ssS'VA'
p39
(dp40
I0
F0.492
sI1
F0.522
sI3
F0.44699999999999995
sI5
F0.525
sI7
F0.639
sI520
F0.6619999999999999
sI9
F0.605
sI11
F0.69
sI13
F0.30800000000000005
sI15
F0.719
sI17
F0.597
sI530
F0.636
sI19
F0.732
sI21
F0.75
sI23
F0.7010000000000001
sI25
F0.378
sI27
F0.679
sI540
F0.242
sI29
F0.497
sI31
F0.704
sI33
F0.46599999999999997
sI35
F0.716
sI36
F0.34199999999999997
sI37
F0.5760000000000001
sI550
F0.5
sI41
F0.542
sI43
F0.581
sI45
F0.688
sI47
F0.5900000000000001
sI49
F0.519
sI51
F0.641
sI53
F0.518
sI57
F0.469
sI570
F0.704
sI59
F0.40700000000000003
sI61
F0.607
sI63
F0.642
sI65
F0.5369999999999999
sI67
F0.659
sI580
F0.43400000000000005
sI69
F0.65
sI71
F0.638
sI73
F0.649
sI75
F0.648
sI77
F0.7070000000000001
sI590
F0.394
sI79
F0.635
sI81
F0.363
sI83
F0.534
sI85
F0.69
sI87
F0.44699999999999995
sI600
F0.42700000000000005
sI89
F0.5860000000000001
sI91
F0.675
sI93
F0.579
sI95
F0.5660000000000001
sI97
F0.522
sI610
F0.30900000000000005
sI99
F0.603
sI101
F0.625
sI103
F0.554
sI105
F0.73
sI107
F0.484
sI620
F0.35
sI109
F0.5760000000000001
sI111
F0.531
sI515
F0.562
sI113
F0.6
sI115
F0.663
sI117
F0.542
sI630
F0.376
sI119
F0.609
sI121
F0.514
sI125
F0.493
sI127
F0.675
sI640
F0.604
sI131
F0.42300000000000004
sI133
F0.5780000000000001
sI135
F0.511
sI137
F0.579
sI650
F0.279
sI139
F0.635
sI141
F0.7070000000000001
sI143
F0.645
sI145
F0.737
sI147
F0.44399999999999995
sI660
F0.44299999999999995
sI149
F0.5529999999999999
sI153
F0.42600000000000005
sI155
F0.639
sI157
F0.5449999999999999
sI670
F0.42500000000000004
sI159
F0.5820000000000001
sI161
F0.636
sI163
F0.598
sI165
F0.7110000000000001
sI678
F0.44599999999999995
sI167
F0.692
sI680
F0.5609999999999999
sI169
F0.76
sI171
F0.665
sI173
F0.673
sI175
F0.521
sI177
F0.565
sI690
F0.386
sI179
F0.55
sI181
F0.402
sI183
F0.382
sI185
F0.793
sI683
F0.44099999999999995
sI187
F0.612
sI700
F0.356
sI191
F0.723
sI193
F0.522
sI195
F0.749
sI197
F0.6930000000000001
sI710
F0.28600000000000003
sI199
F0.611
sI720
F0.619
sI730
F0.09999999999999998
sI735
F0.763
sI740
F0.30700000000000005
sI750
F0.492
sI760
F0.22899999999999998
sI770
F0.40800000000000003
sI775
F0.612
sI790
F0.488
sI800
F0.42900000000000005
sI810
F0.519
sI820
F0.563
sI830
F0.365
sI840
F0.504
sI685
F0.379
sI595
F0.33399999999999996
sI510
F0.28600000000000003
ssS'AK'
p41
(dp42
I0
F0.5840000000000001
ssS'AL'
p43
(dp44
I0
F0.616
sI1
F0.734
sI3
F0.784
sI5
F0.487
sI7
F0.738
sI9
F0.877
sI11
F0.237
sI13
F0.5389999999999999
sI15
F0.665
sI17
F0.529
sI19
F0.782
sI21
F0.8049999999999999
sI23
F0.525
sI25
F0.5429999999999999
sI27
F0.733
sI29
F0.846
sI31
F0.752
sI133
F0.868
sI33
F0.608
sI35
F0.494
sI37
F0.583
sI39
F0.795
sI129
F0.661
sI41
F0.681
sI43
F0.854
sI45
F0.7150000000000001
sI47
F0.30300000000000005
sI49
F0.78
sI51
F0.748
sI53
F0.631
sI55
F0.6990000000000001
sI57
F0.772
sI59
F0.708
sI61
F0.8200000000000001
sI63
F0.15300000000000002
sI65
F0.374
sI67
F0.65
sI69
F0.7050000000000001
sI71
F0.7170000000000001
sI73
F0.474
sI75
F0.77
sI77
F0.661
sI79
F0.641
sI81
F0.607
sI83
F0.723
sI85
F0.236
sI87
F0.129
sI89
F0.6
sI91
F0.46499999999999997
sI93
F0.8140000000000001
sI95
F0.8069999999999999
sI97
F0.55
sI99
F0.5409999999999999
sI131
F0.257
sI101
F0.381
sI103
F0.728
sI105
F0.252
sI107
F0.5369999999999999
sI109
F0.573
sI111
F0.704
sI113
F0.44399999999999995
sI115
F0.835
sI117
F0.784
sI119
F0.22799999999999998
sI121
F0.583
sI123
F0.665
sI125
F0.5920000000000001
sI127
F0.77
ssS'AR'
p45
(dp46
I0
F0.631
sI129
F0.78
sI3
F0.639
sI5
F0.733
sI149
F0.712
sI7
F0.714
sI145
F0.783
sI9
F0.755
sI11
F0.602
sI13
F0.696
sI15
F0.637
sI141
F0.716
sI17
F0.393
sI19
F0.5469999999999999
sI21
F0.6599999999999999
sI23
F0.775
sI137
F0.747
sI25
F0.741
sI27
F0.624
sI29
F0.611
sI31
F0.6679999999999999
sI133
F0.759
sI33
F0.763
sI35
F0.41400000000000003
sI37
F0.659
sI39
F0.5660000000000001
sI41
F0.44499999999999995
sI43
F0.604
sI45
F0.6719999999999999
sI47
F0.736
sI49
F0.679
sI51
F0.661
sI53
F0.774
sI55
F0.7090000000000001
sI57
F0.644
sI59
F0.6599999999999999
sI61
F0.6699999999999999
sI63
F0.735
sI65
F0.706
sI67
F0.608
sI147
F0.501
sI69
F0.362
sI71
F0.655
sI73
F0.599
sI75
F0.677
sI143
F0.599
sI77
F0.385
sI79
F0.618
sI81
F0.6930000000000001
sI83
F0.726
sI139
F0.64
sI85
F0.767
sI87
F0.6799999999999999
sI89
F0.712
sI91
F0.7050000000000001
sI135
F0.7130000000000001
sI93
F0.517
sI95
F0.51
sI97
F0.73
sI99
F0.612
sI131
F0.698
sI101
F0.729
sI103
F0.5509999999999999
sI105
F0.6990000000000001
sI107
F0.344
sI109
F0.776
sI111
F0.6839999999999999
sI113
F0.798
sI115
F0.749
sI117
F0.72
sI119
F0.45299999999999996
sI121
F0.657
sI123
F0.42000000000000004
sI125
F0.727
sI127
F0.754
ssS'VT'
p47
(dp48
I0
F0.32999999999999996
sI1
F0.29300000000000004
sI3
F0.28700000000000003
sI5
F0.41500000000000004
sI7
F0.24
sI9
F0.375
sI11
F0.4
sI13
F0.33199999999999996
sI15
F0.30300000000000005
sI17
F0.40800000000000003
sI19
F0.477
sI21
F0.403
sI23
F0.235
sI25
F0.32999999999999996
sI27
F0.28
ssS'IL'
p49
(dp50
I0
F0.42700000000000005
sI1
F0.685
sI3
F0.43899999999999995
sI5
F0.5880000000000001
sI7
F0.5369999999999999
sI9
F0.667
sI11
F0.511
sI13
F0.581
sI15
F0.504
sI17
F0.5780000000000001
sI19
F0.48
sI21
F0.626
sI23
F0.6699999999999999
sI25
F0.732
sI27
F0.6599999999999999
sI29
F0.5660000000000001
sI31
F0.26
sI33
F0.6679999999999999
sI35
F0.69
sI37
F0.484
sI39
F0.646
sI41
F0.692
sI43
F0.503
sI45
F0.6719999999999999
sI47
F0.766
sI49
F0.768
sI51
F0.6819999999999999
sI53
F0.724
sI55
F0.595
sI57
F0.45699999999999996
sI59
F0.6
sI61
F0.64
sI63
F0.5549999999999999
sI65
F0.6779999999999999
sI67
F0.606
sI69
F0.6819999999999999
sI71
F0.44499999999999995
sI73
F0.493
sI75
F0.733
sI77
F0.46599999999999997
sI79
F0.7150000000000001
sI81
F0.627
sI83
F0.632
sI85
F0.504
sI87
F0.723
sI89
F0.504
sI91
F0.525
sI93
F0.529
sI95
F0.42300000000000004
sI97
F0.46599999999999997
sI99
F0.512
sI101
F0.6639999999999999
sI103
F0.546
sI105
F0.6659999999999999
sI107
F0.6699999999999999
sI109
F0.521
sI111
F0.5529999999999999
sI113
F0.5660000000000001
sI115
F0.5349999999999999
sI117
F0.5489999999999999
sI119
F0.519
sI121
F0.605
sI123
F0.5800000000000001
sI125
F0.5429999999999999
sI127
F0.6779999999999999
sI129
F0.659
sI131
F0.472
sI133
F0.644
sI135
F0.583
sI137
F0.5880000000000001
sI139
F0.646
sI141
F0.593
sI143
F0.487
sI145
F0.6
sI147
F0.646
sI149
F0.687
sI151
F0.708
sI153
F0.5369999999999999
sI155
F0.503
sI157
F0.6
sI159
F0.6759999999999999
sI161
F0.398
sI163
F0.43600000000000005
sI165
F0.655
sI167
F0.554
sI169
F0.5549999999999999
sI171
F0.644
sI173
F0.679
sI175
F0.589
sI177
F0.5329999999999999
sI179
F0.6
sI181
F0.621
sI183
F0.5880000000000001
sI185
F0.69
sI187
F0.479
sI189
F0.669
sI191
F0.8029999999999999
sI193
F0.69
sI195
F0.42300000000000004
sI197
F0.489
sI199
F0.635
sI201
F0.48
sI203
F0.7050000000000001
ssS'IN'
p51
(dp52
I0
F0.562
sI1
F0.708
sI3
F0.591
sI5
F0.638
sI7
F0.6759999999999999
sI9
F0.593
sI11
F0.7
sI13
F0.597
sI15
F0.6619999999999999
sI17
F0.62
sI19
F0.5589999999999999
sI21
F0.6679999999999999
sI23
F0.665
sI25
F0.5549999999999999
sI27
F0.762
sI29
F0.708
sI31
F0.7150000000000001
sI33
F0.6679999999999999
sI35
F0.496
sI37
F0.648
sI39
F0.64
sI41
F0.597
sI43
F0.5800000000000001
sI45
F0.6859999999999999
sI47
F0.724
sI49
F0.677
sI51
F0.665
sI53
F0.62
sI55
F0.669
sI57
F0.6799999999999999
sI59
F0.716
sI61
F0.626
sI63
F0.683
sI65
F0.599
sI67
F0.583
sI69
F0.708
sI71
F0.651
sI73
F0.638
sI75
F0.612
sI77
F0.563
sI79
F0.627
sI81
F0.702
sI83
F0.655
sI85
F0.772
sI87
F0.6890000000000001
sI89
F0.351
sI91
F0.44799999999999995
sI93
F0.6759999999999999
sI95
F0.534
sI97
F0.398
sI99
F0.654
sI101
F0.7150000000000001
sI103
F0.669
sI105
F0.43100000000000005
sI107
F0.704
sI109
F0.718
sI111
F0.609
sI113
F0.6779999999999999
sI115
F0.647
sI117
F0.621
sI119
F0.652
sI121
F0.6759999999999999
sI123
F0.45199999999999996
sI125
F0.641
sI127
F0.49
sI129
F0.629
sI131
F0.648
sI133
F0.6739999999999999
sI135
F0.63
sI137
F0.7050000000000001
sI139
F0.6839999999999999
sI141
F0.49
sI143
F0.5409999999999999
sI145
F0.6799999999999999
sI147
F0.5860000000000001
sI149
F0.565
sI151
F0.646
sI153
F0.615
sI155
F0.577
sI157
F0.53
sI159
F0.6699999999999999
sI161
F0.6719999999999999
sI163
F0.563
sI165
F0.5469999999999999
sI167
F0.505
sI169
F0.6910000000000001
sI171
F0.651
sI173
F0.643
sI175
F0.636
sI177
F0.5840000000000001
sI179
F0.734
sI181
F0.633
sI183
F0.7050000000000001
ssS'IA'
p53
(dp54
I0
F0.997
sI1
F0.548
sI3
F0.528
sI5
F0.485
sI7
F0.525
sI9
F0.532
sI11
F0.509
sI13
F0.406
sI15
F0.476
sI17
F0.492
sI19
F0.43700000000000006
sI21
F0.5569999999999999
sI23
F0.558
sI25
F0.5700000000000001
sI27
F0.536
sI29
F0.602
sI31
F0.484
sI33
F0.43899999999999995
sI35
F0.5880000000000001
sI37
F0.44999999999999996
sI39
F0.503
sI41
F0.6
sI43
F0.472
sI45
F0.392
sI47
F0.546
sI49
F0.5640000000000001
sI51
F0.594
sI53
F0.53
sI55
F0.506
sI57
F0.41400000000000003
sI59
F0.596
sI61
F0.43400000000000005
sI63
F0.5509999999999999
sI65
F0.44599999999999995
sI67
F0.43200000000000005
sI69
F0.56
sI71
F0.552
sI73
F0.507
sI75
F0.62
sI77
F0.5609999999999999
sI79
F0.52
sI81
F0.5740000000000001
sI83
F0.542
sI85
F0.5700000000000001
sI87
F0.5369999999999999
sI89
F0.402
sI91
F0.616
sI93
F0.637
sI97
F0.42200000000000004
sI99
F0.472
sI101
F0.43200000000000005
sI103
F0.33099999999999996
sI105
F0.46799999999999997
sI107
F0.56
sI109
F0.567
sI111
F0.42800000000000005
sI113
F0.41900000000000004
sI115
F0.502
sI117
F0.5369999999999999
sI119
F0.781
sI121
F0.569
sI123
F0.61
sI125
F0.5740000000000001
sI127
F0.46099999999999997
sI129
F0.604
sI131
F0.493
sI133
F0.554
sI135
F0.5449999999999999
sI137
F0.616
sI139
F0.43200000000000005
sI141
F0.731
sI143
F0.714
sI145
F0.631
sI147
F0.563
sI149
F0.679
sI151
F0.62
sI153
F0.43600000000000005
sI155
F0.536
sI157
F0.46199999999999997
sI159
F0.542
sI161
F0.597
sI163
F0.43700000000000006
sI165
F0.618
sI167
F0.844
sI169
F0.44199999999999995
sI171
F0.47
sI173
F0.577
sI175
F0.487
sI177
F0.605
sI179
F0.44899999999999995
sI181
F0.516
sI183
F0.5329999999999999
sI185
F0.567
sI187
F0.478
sI189
F0.507
sI191
F0.43300000000000005
sI193
F0.507
sI195
F0.43400000000000005
sI197
F0.5469999999999999
ssS'OK'
p55
(dp56
I0
F0.92
sI1
F0.6739999999999999
sI3
F0.847
sI5
F0.74
sI149
F0.8089999999999999
sI7
F0.894
sI145
F0.728
sI9
F0.795
sI11
F0.74
sI13
F0.722
sI15
F0.642
sI141
F0.667
sI17
F0.772
sI19
F0.7130000000000001
sI21
F0.5700000000000001
sI23
F0.7050000000000001
sI137
F0.766
sI25
F0.904
sI27
F0.63
sI29
F0.725
sI31
F0.585
sI133
F0.651
sI33
F0.732
sI35
F0.6699999999999999
sI37
F0.727
sI39
F0.759
sI129
F0.838
sI41
F0.7070000000000001
sI43
F0.855
sI45
F0.875
sI47
F0.762
sI49
F0.73
sI51
F0.756
sI53
F0.81
sI55
F0.734
sI57
F0.714
sI59
F0.879
sI151
F0.8029999999999999
sI61
F0.723
sI63
F0.6739999999999999
sI65
F0.753
sI67
F0.731
sI147
F0.739
sI69
F0.7
sI71
F0.7130000000000001
sI73
F0.842
sI75
F0.677
sI143
F0.637
sI77
F0.6910000000000001
sI79
F0.706
sI81
F0.745
sI83
F0.724
sI139
F0.852
sI85
F0.702
sI87
F0.777
sI89
F0.758
sI91
F0.619
sI135
F0.6950000000000001
sI93
F0.858
sI95
F0.728
sI97
F0.6659999999999999
sI99
F0.7010000000000001
sI131
F0.751
sI101
F0.5740000000000001
sI103
F0.753
sI105
F0.6950000000000001
sI107
F0.65
sI111
F0.587
sI113
F0.626
sI115
F0.648
sI117
F0.7
sI119
F0.642
sI153
F0.84
sI121
F0.6910000000000001
sI123
F0.694
sI125
F0.6930000000000001
sI127
F0.747
ssS'AZ'
p57
(dp58
I0
F0.5589999999999999
sI1
F0.33899999999999997
sI3
F0.629
sI5
F0.43700000000000006
sI7
F0.64
sI9
F0.696
sI11
F0.5589999999999999
sI12
F0.671
sI13
F0.569
sI15
F0.722
sI17
F0.548
sI19
F0.479
sI21
F0.594
sI23
F0.31699999999999995
sI25
F0.663
sI27
F0.587
ssS'ID'
p59
(dp60
I0
F0.6739999999999999
sI1
F0.573
sI3
F0.72
sI5
F0.625
sI7
F0.893
sI9
F0.7
sI11
F0.783
sI13
F0.41200000000000003
sI15
F0.7150000000000001
sI17
F0.649
sI19
F0.771
sI21
F0.73
sI23
F0.7989999999999999
sI25
F0.725
sI27
F0.6990000000000001
sI29
F0.874
sI31
F0.87
sI33
F0.7989999999999999
sI35
F0.721
sI37
F0.775
sI39
F0.6859999999999999
sI41
F0.942
sI43
F0.86
sI45
F0.739
sI47
F0.749
sI49
F0.778
sI51
F0.886
sI53
F0.746
sI55
F0.685
sI57
F0.504
sI59
F0.766
sI61
F0.754
sI63
F0.736
sI65
F0.942
sI67
F0.8009999999999999
sI69
F0.617
sI71
F0.896
sI73
F0.776
sI75
F0.733
sI77
F0.6619999999999999
sI79
F0.558
sI81
F0.5740000000000001
sI83
F0.732
sI85
F0.5740000000000001
sI87
F0.745
ssS'ME'
p61
(dp62
I0
F0.43999999999999995
sI1
F0.5780000000000001
sI3
F0.54
sI5
F0.397
sI7
F0.44199999999999995
sI9
F0.591
sI11
F0.45799999999999996
sI13
F0.501
sI15
F0.495
sI17
F0.508
sI19
F0.504
sI21
F0.605
sI23
F0.46199999999999997
sI25
F0.46799999999999997
sI27
F0.51
sI29
F0.56
sI31
F0.43000000000000005
ssS'MD'
p63
(dp64
I0
F0.383
sI1
F0.6759999999999999
sI3
F0.515
sI5
F0.42800000000000005
sI9
F0.55
sI11
F0.631
sI13
F0.683
sI15
F0.613
sI17
F0.35
sI19
F0.5389999999999999
sI21
F0.531
sI23
F0.77
sI25
F0.608
sI27
F0.405
sI29
F0.513
sI31
F0.29100000000000004
sI33
F0.09899999999999998
sI35
F0.659
sI37
F0.5920000000000001
sI39
F0.517
sI41
F0.5720000000000001
sI43
F0.603
sI45
F0.5429999999999999
sI47
F0.599
sI510
F0.126
ssS'MA'
p65
(dp66
I0
F0.393
sI1
F0.482
sI3
F0.262
sI5
F0.40900000000000003
sI7
F0.20499999999999996
sI9
F0.5
sI11
F0.348
sI13
F0.544
sI15
F0.33499999999999996
sI17
F0.46499999999999997
sI19
F0.372
sI21
F0.573
sI23
F0.508
sI25
F0.41400000000000003
sI27
F0.31000000000000005
ssS'OH'
p67
(dp68
I0
F0.499
sI1
F0.642
sI3
F0.637
sI5
F0.661
sI7
F0.44999999999999996
sI9
F0.33899999999999997
sI11
F0.753
sI13
F0.552
sI15
F0.635
sI17
F0.639
sI19
F0.5840000000000001
sI21
F0.609
sI23
F0.517
sI25
F0.6859999999999999
sI27
F0.6859999999999999
sI29
F0.571
sI31
F0.56
sI33
F0.624
sI35
F0.31200000000000006
sI37
F0.734
sI39
F0.581
sI41
F0.625
sI43
F0.45199999999999996
sI45
F0.589
sI47
F0.618
sI49
F0.399
sI51
F0.577
sI53
F0.641
sI55
F0.615
sI57
F0.617
sI59
F0.5589999999999999
sI61
F0.482
sI63
F0.651
sI65
F0.631
sI67
F0.5860000000000001
sI69
F0.604
sI71
F0.6639999999999999
sI73
F0.517
sI75
F0.774
sI77
F0.5569999999999999
sI79
F0.616
sI81
F0.5369999999999999
sI83
F0.632
sI85
F0.517
sI87
F0.5860000000000001
sI89
F0.583
sI91
F0.669
sI93
F0.43600000000000005
sI95
F0.357
sI97
F0.611
sI99
F0.368
sI101
F0.5489999999999999
sI103
F0.5740000000000001
sI105
F0.608
sI107
F0.782
sI109
F0.687
sI111
F0.554
sI113
F0.493
sI115
F0.5409999999999999
sI117
F0.634
sI119
F0.546
sI121
F0.638
sI123
F0.489
sI125
F0.615
sI127
F0.5329999999999999
sI129
F0.602
sI131
F0.511
sI133
F0.486
sI135
F0.694
sI137
F0.766
sI139
F0.611
sI141
F0.52
sI143
F0.502
sI145
F0.519
sI147
F0.5549999999999999
sI149
F0.738
sI151
F0.511
sI153
F0.43300000000000005
sI155
F0.398
sI157
F0.5609999999999999
sI159
F0.657
sI161
F0.7110000000000001
sI163
F0.5549999999999999
sI165
F0.7050000000000001
sI167
F0.606
sI169
F0.616
sI171
F0.5920000000000001
sI173
F0.49
sI175
F0.614
ssS'MO'
p69
(dp70
I0
F0.5569999999999999
sI1
F0.583
sI3
F0.681
sI5
F0.721
sI7
F0.644
sI9
F0.734
sI11
F0.786
sI13
F0.671
sI15
F0.681
sI17
F0.778
sI19
F0.498
sI21
F0.556
sI23
F0.742
sI25
F0.685
sI27
F0.667
sI29
F0.706
sI31
F0.728
sI33
F0.732
sI35
F0.731
sI37
F0.652
sI39
F0.746
sI41
F0.65
sI43
F0.742
sI45
F0.567
sI47
F0.552
sI49
F0.625
sI51
F0.6759999999999999
sI53
F0.671
sI55
F0.692
sI57
F0.759
sI59
F0.708
sI61
F0.6799999999999999
sI63
F0.726
sI65
F0.761
sI67
F0.739
sI69
F0.659
sI71
F0.65
sI73
F0.706
sI75
F0.687
sI77
F0.633
sI79
F0.723
sI81
F0.734
sI83
F0.644
sI85
F0.63
sI87
F0.761
sI89
F0.646
sI91
F0.731
sI93
F0.5860000000000001
sI95
F0.41300000000000003
sI97
F0.7170000000000001
sI99
F0.5740000000000001
sI101
F0.635
sI103
F0.643
sI105
F0.734
sI107
F0.642
sI109
F0.745
sI111
F0.648
sI113
F0.659
sI115
F0.633
sI117
F0.685
sI119
F0.754
sI121
F0.677
sI123
F0.6779999999999999
sI125
F0.714
sI127
F0.6679999999999999
sI129
F0.787
sI131
F0.759
sI133
F0.622
sI135
F0.75
sI137
F0.655
sI139
F0.6739999999999999
sI141
F0.681
sI143
F0.612
sI145
F0.744
sI147
F0.647
sI149
F0.679
sI151
F0.787
sI153
F0.7170000000000001
sI155
F0.5780000000000001
sI157
F0.727
sI159
F0.656
sI161
F0.681
sI163
F0.647
sI165
F0.579
sI167
F0.727
sI169
F0.6910000000000001
sI171
F0.746
sI173
F0.655
sI175
F0.6950000000000001
sI177
F0.5880000000000001
sI179
F0.639
sI181
F0.735
sI183
F0.613
sI185
F0.6839999999999999
sI186
F0.528
sI187
F0.609
sI189
F0.43799999999999994
sI195
F0.5840000000000001
sI197
F0.641
sI199
F0.6679999999999999
sI201
F0.6990000000000001
sI203
F0.648
sI205
F0.7010000000000001
sI207
F0.755
sI209
F0.755
sI211
F0.65
sI213
F0.747
sI215
F0.733
sI217
F0.6970000000000001
sI219
F0.644
sI221
F0.605
sI223
F0.683
sI225
F0.714
sI227
F0.675
sI229
F0.755
sI510
F0.17300000000000004
ssS'MN'
p71
(dp72
I0
F0.472
sI1
F0.516
sI3
F0.523
sI5
F0.5820000000000001
sI7
F0.46199999999999997
sI9
F0.581
sI11
F0.517
sI13
F0.46599999999999997
sI15
F0.594
sI17
F0.38
sI19
F0.607
sI21
F0.5740000000000001
sI23
F0.501
sI25
F0.573
sI27
F0.471
sI29
F0.581
sI31
F0.397
sI33
F0.5840000000000001
sI35
F0.5760000000000001
sI37
F0.495
sI39
F0.563
sI41
F0.5860000000000001
sI43
F0.5569999999999999
sI45
F0.474
sI47
F0.43999999999999995
sI49
F0.525
sI51
F0.525
sI53
F0.375
sI55
F0.493
sI57
F0.593
sI59
F0.601
sI61
F0.46099999999999997
sI63
F0.581
sI65
F0.558
sI67
F0.542
sI69
F0.484
sI71
F0.46299999999999997
sI73
F0.503
sI75
F0.405
sI77
F0.613
sI79
F0.542
sI81
F0.5409999999999999
sI83
F0.5569999999999999
sI85
F0.622
sI87
F0.41400000000000003
sI89
F0.5720000000000001
sI91
F0.629
sI93
F0.5920000000000001
sI95
F0.5529999999999999
sI97
F0.631
sI99
F0.397
sI101
F0.546
sI103
F0.472
sI105
F0.5529999999999999
sI107
F0.45899999999999996
sI109
F0.495
sI111
F0.615
sI113
F0.534
sI115
F0.515
sI117
F0.627
sI119
F0.5369999999999999
sI121
F0.521
sI123
F0.33399999999999996
sI125
F0.527
sI127
F0.612
sI129
F0.558
sI131
F0.47
sI133
F0.597
sI135
F0.622
sI137
F0.363
sI139
F0.5840000000000001
sI141
F0.62
sI143
F0.625
sI145
F0.571
sI147
F0.5429999999999999
sI149
F0.512
sI151
F0.45899999999999996
sI153
F0.5900000000000001
sI155
F0.488
sI157
F0.538
sI159
F0.632
sI161
F0.55
sI163
F0.505
sI165
F0.512
sI167
F0.608
sI169
F0.44699999999999995
sI171
F0.618
sI173
F0.5429999999999999
ssS'MI'
p73
(dp74
I0
F0.45699999999999996
sI1
F0.595
sI3
F0.519
sI5
F0.602
sI149
F0.567
sI7
F0.5329999999999999
sI145
F0.44499999999999995
sI9
F0.613
sI11
F0.531
sI13
F0.5489999999999999
sI161
F0.32499999999999996
sI15
F0.596
sI141
F0.5489999999999999
sI17
F0.475
sI19
F0.524
sI21
F0.5369999999999999
sI23
F0.599
sI137
F0.604
sI25
F0.497
sI27
F0.573
sI29
F0.5780000000000001
sI31
F0.5609999999999999
sI133
F0.612
sI33
F0.544
sI35
F0.53
sI37
F0.5349999999999999
sI39
F0.5609999999999999
sI129
F0.538
sI41
F0.538
sI43
F0.613
sI159
F0.503
sI45
F0.49
sI47
F0.591
sI49
F0.364
sI51
F0.5409999999999999
sI155
F0.488
sI53
F0.46399999999999997
sI55
F0.5640000000000001
sI57
F0.525
sI163
F0.269
sI59
F0.628
sI151
F0.607
sI61
F0.5589999999999999
sI63
F0.579
sI65
F0.366
sI67
F0.5720000000000001
sI147
F0.5409999999999999
sI69
F0.532
sI71
F0.5509999999999999
sI73
F0.45899999999999996
sI75
F0.534
sI143
F0.524
sI77
F0.43799999999999994
sI79
F0.605
sI81
F0.5449999999999999
sI83
F0.581
sI139
F0.675
sI85
F0.479
sI87
F0.563
sI89
F0.536
sI91
F0.512
sI135
F0.589
sI93
F0.62
sI95
F0.616
sI97
F0.565
sI99
F0.484
sI131
F0.552
sI101
F0.478
sI165
F0.587
sI103
F0.43600000000000005
sI105
F0.53
sI107
F0.5549999999999999
sI109
F0.52
sI111
F0.5820000000000001
sI157
F0.56
sI113
F0.6759999999999999
sI115
F0.5
sI117
F0.55
sI119
F0.594
sI153
F0.5389999999999999
sI121
F0.41600000000000004
sI123
F0.593
sI125
F0.46299999999999997
sI127
F0.5569999999999999
ssS'RI'
p75
(dp76
I0
F0.373
sI1
F0.368
sI3
F0.396
sI5
F0.481
sI7
F0.352
sI9
F0.42500000000000004
ssS'KS'
p77
(dp78
I0
F0.622
sI1
F0.647
sI3
F0.714
sI5
F0.617
sI7
F0.793
sI9
F0.776
sI11
F0.681
sI13
F0.731
sI15
F0.72
sI17
F0.722
sI19
F0.8280000000000001
sI21
F0.6579999999999999
sI23
F0.838
sI25
F0.829
sI27
F0.774
sI29
F0.76
sI31
F0.77
sI33
F0.846
sI35
F0.661
sI37
F0.5449999999999999
sI39
F0.8260000000000001
sI41
F0.75
sI43
F0.737
sI45
F0.395
sI47
F0.787
sI49
F0.796
sI51
F0.729
sI53
F0.74
sI55
F0.696
sI57
F0.6950000000000001
sI59
F0.6659999999999999
sI61
F0.5800000000000001
sI63
F0.873
sI65
F0.812
sI67
F0.8029999999999999
sI69
F0.84
sI71
F0.832
sI73
F0.759
sI75
F0.8140000000000001
sI77
F0.77
sI79
F0.626
sI81
F0.851
sI83
F0.83
sI85
F0.6579999999999999
sI87
F0.627
sI89
F0.848
sI91
F0.599
sI93
F0.8049999999999999
sI95
F0.771
sI97
F0.859
sI99
F0.611
sI101
F0.815
sI103
F0.612
sI105
F0.8049999999999999
sI107
F0.742
sI109
F0.851
sI111
F0.5720000000000001
sI113
F0.719
sI115
F0.745
sI117
F0.69
sI119
F0.846
sI121
F0.683
sI123
F0.8029999999999999
sI125
F0.718
sI127
F0.721
sI129
F0.856
sI131
F0.8009999999999999
sI133
F0.6839999999999999
sI135
F0.851
sI137
F0.829
sI139
F0.671
sI141
F0.8220000000000001
sI143
F0.81
sI145
F0.726
sI147
F0.852
sI149
F0.754
sI151
F0.74
sI153
F0.87
sI155
F0.6699999999999999
sI157
F0.8220000000000001
sI159
F0.752
sI161
F0.5760000000000001
sI163
F0.848
sI165
F0.767
sI167
F0.8140000000000001
sI169
F0.673
sI171
F0.866
sI173
F0.61
sI175
F0.719
sI177
F0.52
sI179
F0.875
sI181
F0.779
sI183
F0.8260000000000001
sI185
F0.78
sI187
F0.8109999999999999
sI189
F0.879
sI191
F0.7090000000000001
sI193
F0.83
sI195
F0.813
sI197
F0.719
sI199
F0.913
sI201
F0.8200000000000001
sI203
F0.841
sI205
F0.78
sI207
F0.737
sI209
F0.32699999999999996
ssS'MT'
p79
(dp80
I0
F0.5820000000000001
sI1
F0.716
sI3
F0.38
sI5
F0.43600000000000005
sI7
F0.747
sI9
F0.634
sI11
F0.879
sI13
F0.56
sI15
F0.654
sI17
F0.6579999999999999
sI19
F0.764
sI21
F0.724
sI23
F0.358
sI25
F0.831
sI27
F0.731
sI29
F0.681
sI31
F0.5429999999999999
sI33
F0.906
sI35
F0.351
sI37
F0.77
sI39
F0.687
sI41
F0.501
sI43
F0.652
sI45
F0.723
sI47
F0.5660000000000001
sI49
F0.531
sI51
F0.739
sI53
F0.7130000000000001
sI55
F0.776
sI57
F0.7150000000000001
sI59
F0.723
sI61
F0.653
sI63
F0.42100000000000004
sI65
F0.795
sI67
F0.5680000000000001
sI69
F0.836
sI71
F0.789
sI73
F0.642
sI75
F0.833
sI77
F0.6799999999999999
sI79
F0.762
sI81
F0.673
sI83
F0.784
sI85
F0.43500000000000005
sI87
F0.591
sI89
F0.7090000000000001
sI91
F0.656
sI93
F0.351
sI95
F0.735
sI97
F0.775
sI99
F0.6699999999999999
sI101
F0.723
sI103
F0.748
sI105
F0.641
sI107
F0.725
sI109
F0.954
sI111
F0.617
ssS'MS'
p81
(dp82
I0
F0.565
sI1
F0.41300000000000003
sI3
F0.765
sI5
F0.5800000000000001
sI149
F0.491
sI7
F0.571
sI145
F0.76
sI9
F0.503
sI11
F0.31499999999999995
sI13
F0.641
sI161
F0.526
sI15
F0.667
sI141
F0.793
sI17
F0.488
sI19
F0.6659999999999999
sI21
F0.119
sI23
F0.626
sI137
F0.598
sI25
F0.393
sI27
F0.251
sI29
F0.44599999999999995
sI31
F0.5840000000000001
sI133
F0.273
sI33
F0.6719999999999999
sI35
F0.565
sI37
F0.616
sI39
F0.862
sI129
F0.756
sI41
F0.776
sI43
F0.534
sI159
F0.5329999999999999
sI45
F0.772
sI47
F0.639
sI49
F0.278
sI51
F0.16100000000000003
sI155
F0.774
sI53
F0.241
sI55
F0.391
sI57
F0.817
sI163
F0.42700000000000005
sI59
F0.687
sI151
F0.28900000000000003
sI61
F0.45399999999999996
sI63
F0.11299999999999999
sI65
F0.381
sI67
F0.696
sI147
F0.5469999999999999
sI69
F0.359
sI71
F0.587
sI73
F0.779
sI75
F0.5820000000000001
sI143
F0.20899999999999996
sI77
F0.636
sI79
F0.546
sI81
F0.65
sI83
F0.274
sI139
F0.75
sI85
F0.659
sI87
F0.512
sI89
F0.5820000000000001
sI91
F0.653
sI135
F0.397
sI93
F0.406
sI95
F0.5840000000000001
sI97
F0.5329999999999999
sI99
F0.722
sI131
F0.737
sI101
F0.6599999999999999
sI103
F0.21499999999999997
sI105
F0.498
sI107
F0.45999999999999996
sI109
F0.8089999999999999
sI111
F0.733
sI157
F0.30600000000000005
sI113
F0.46599999999999997
sI115
F0.774
sI117
F0.719
sI119
F0.28700000000000003
sI153
F0.599
sI121
F0.765
sI123
F0.5489999999999999
sI125
F0.30400000000000005
sI127
F0.614
ssS'KY'
p83
(dp84
I0
F0.622
sI1
F0.782
sI3
F0.745
sI5
F0.679
sI7
F0.6950000000000001
sI9
F0.6739999999999999
sI11
F0.571
sI13
F0.765
sI15
F0.702
sI17
F0.611
sI19
F0.5920000000000001
sI21
F0.639
sI23
F0.645
sI25
F0.688
sI27
F0.645
sI29
F0.6859999999999999
sI31
F0.744
sI33
F0.6839999999999999
sI35
F0.647
sI37
F0.625
sI39
F0.714
sI41
F0.5569999999999999
sI43
F0.62
sI45
F0.8220000000000001
sI47
F0.624
sI49
F0.661
sI51
F0.85
sI53
F0.829
sI55
F0.751
sI57
F0.79
sI59
F0.615
sI61
F0.7050000000000001
sI63
F0.506
sI65
F0.738
sI67
F0.507
sI69
F0.669
sI71
F0.6819999999999999
sI73
F0.506
sI75
F0.5880000000000001
sI77
F0.595
sI79
F0.765
sI81
F0.673
sI83
F0.7070000000000001
sI85
F0.704
sI87
F0.76
sI89
F0.602
sI91
F0.556
sI93
F0.612
sI95
F0.8280000000000001
sI97
F0.655
sI99
F0.655
sI101
F0.565
sI103
F0.616
sI105
F0.679
sI107
F0.7070000000000001
sI109
F0.879
sI111
F0.45199999999999996
sI113
F0.7090000000000001
sI115
F0.8089999999999999
sI117
F0.632
sI119
F0.751
sI121
F0.776
sI123
F0.6990000000000001
sI125
F0.8260000000000001
sI127
F0.728
sI129
F0.773
sI131
F0.913
sI133
F0.806
sI135
F0.719
sI137
F0.718
sI139
F0.702
sI141
F0.6699999999999999
sI143
F0.642
sI145
F0.671
sI147
F0.813
sI149
F0.659
sI151
F0.654
sI153
F0.708
sI155
F0.5329999999999999
sI157
F0.6799999999999999
sI159
F0.85
sI161
F0.623
sI163
F0.622
sI165
F0.597
sI167
F0.7010000000000001
sI169
F0.659
sI171
F0.8029999999999999
sI173
F0.639
sI175
F0.694
sI177
F0.625
sI179
F0.589
sI181
F0.633
sI183
F0.69
sI185
F0.6910000000000001
sI187
F0.6699999999999999
sI189
F0.821
sI191
F0.6639999999999999
sI193
F0.8
sI195
F0.761
sI197
F0.635
sI199
F0.8089999999999999
sI201
F0.636
sI203
F0.8240000000000001
sI205
F0.55
sI207
F0.817
sI209
F0.634
sI211
F0.644
sI213
F0.626
sI215
F0.698
sI217
F0.7
sI219
F0.7030000000000001
sI221
F0.6859999999999999
sI223
F0.617
sI225
F0.675
sI227
F0.617
sI229
F0.6799999999999999
sI231
F0.743
sI233
F0.677
sI235
F0.795
sI237
F0.619
sI239
F0.604
ssS'OR'
p85
(dp86
I0
F0.45599999999999996
sI1
F0.7170000000000001
sI3
F0.375
sI5
F0.493
sI7
F0.44099999999999995
sI9
F0.492
sI11
F0.548
sI13
F0.6950000000000001
sI15
F0.6
sI17
F0.548
sI19
F0.653
sI21
F0.645
sI23
F0.779
sI25
F0.765
sI27
F0.381
sI29
F0.54
sI31
F0.594
sI33
F0.624
sI35
F0.704
sI37
F0.791
sI39
F0.399
sI41
F0.41300000000000003
sI43
F0.602
sI45
F0.722
sI47
F0.53
sI49
F0.69
sI51
F0.242
sI53
F0.536
sI55
F0.6890000000000001
sI57
F0.494
sI59
F0.655
sI61
F0.669
sI63
F0.698
sI65
F0.52
sI67
F0.42500000000000004
sI69
F0.688
sI71
F0.5469999999999999
ssS'SD'
p87
(dp88
I0
F0.601
sI129
F0.727
sI3
F0.603
sI5
F0.603
sI7
F0.544
sI9
F0.62
sI11
F0.53
sI13
F0.5489999999999999
sI15
F0.654
sI17
F0.264
sI19
F0.762
sI21
F0.806
sI23
F0.606
sI137
F0.42300000000000004
sI25
F0.608
sI27
F0.43500000000000005
sI29
F0.602
sI31
F0.45999999999999996
sI33
F0.7050000000000001
sI35
F0.618
sI37
F0.479
sI39
F0.567
sI41
F0.363
sI43
F0.804
sI45
F0.679
sI47
F0.6759999999999999
sI49
F0.706
sI51
F0.5860000000000001
sI53
F0.722
sI55
F0.874
sI57
F0.6699999999999999
sI59
F0.6890000000000001
sI61
F0.685
sI63
F0.889
sI65
F0.6579999999999999
sI67
F0.731
sI69
F0.742
sI71
F0.615
sI73
F0.5509999999999999
sI75
F0.823
sI77
F0.581
sI79
F0.567
sI81
F0.65
sI83
F0.636
sI85
F0.614
sI87
F0.654
sI89
F0.776
sI91
F0.46599999999999997
sI135
F0.5760000000000001
sI93
F0.729
sI95
F0.512
sI97
F0.5800000000000001
sI99
F0.5469999999999999
sI101
F0.529
sI103
F0.6599999999999999
sI105
F0.7989999999999999
sI107
F0.755
sI109
F0.45899999999999996
sI111
F0.651
sI113
F0.06599999999999995
sI115
F0.573
sI117
F0.718
sI119
F0.772
sI121
F0.20899999999999996
sI123
F0.726
sI125
F0.665
sI127
F0.634
ss.